Component: ARM Compiler 5.05 update 1 (build 106) Tool: armlink [4d0efa]

==============================================================================

Section Cross References

    main.o(i.hal_low_power_io_init) refers to gpio.o(i.hal_gpio_pull_set) for hal_gpio_pull_set
    main.o(i.hal_low_power_io_init) refers to pwrmgr.o(i.hal_pwrmgr_RAM_retention) for hal_pwrmgr_RAM_retention
    main.o(i.hal_low_power_io_init) refers to pwrmgr.o(i.hal_pwrmgr_RAM_retention_set) for hal_pwrmgr_RAM_retention_set
    main.o(i.hal_low_power_io_init) refers to pwrmgr.o(i.hal_pwrmgr_LowCurrentLdo_enable) for hal_pwrmgr_LowCurrentLdo_enable
    main.o(i.hal_low_power_io_init) refers to main.o(.constdata) for .constdata
    main.o(i.hal_rfphy_init) refers to patch.o(i.hal_rom_boot_init) for hal_rom_boot_init
    main.o(i.hal_rfphy_init) refers to main.o(i.NVIC_SetPriority) for NVIC_SetPriority
    main.o(i.hal_rfphy_init) refers to main.o(.bss) for .bss
    main.o(i.main) refers to patch.o(_section_xip_code_) for init_config
    main.o(i.main) refers to main.o(i.hal_rfphy_init) for hal_rfphy_init
    main.o(i.main) refers to main.o(i.hal_low_power_io_init) for hal_low_power_io_init
    main.o(i.main) refers to clock.o(i.hal_rtc_clock_config) for hal_rtc_clock_config
    main.o(i.main) refers to pwrmgr.o(i.hal_pwrmgr_init) for hal_pwrmgr_init
    main.o(i.main) refers to flash.o(i.hal_spif_cache_init) for hal_spif_cache_init
    main.o(i.main) refers to my_printf.o(i.dbg_printf_init) for dbg_printf_init
    main.o(i.main) refers to gpio.o(i.hal_gpio_init) for hal_gpio_init
    main.o(i.main) refers to adc.o(i.hal_adc_init) for hal_adc_init
    main.o(i.main) refers to my_printf.o(i.dbg_printf) for dbg_printf
    main.o(i.main) refers to adc_main.o(i.app_main) for app_main
    main.o(i.main) refers to main.o(.data) for .data
    main.o(i.main) refers to main.o(.constdata) for .constdata
    main.o(i.main) refers to main.o(.conststring) for .conststring
    adc_demo.o(i.adcMeasureCh) refers to adc.o(i.adc_init_r) for adc_init_r
    adc_demo.o(i.adcMeasureCh) refers to clock.o(i.WaitUs) for WaitUs
    adc_demo.o(i.adcMeasureCh) refers to adc.o(i.adc_stop_r) for adc_stop_r
    adc_demo.o(i.adcMeasureCh) refers to adc_demo.o(i.InsertSort) for InsertSort
    adc_demo.o(i.adcMeasureCh) refers to adc_demo.o(.constdata) for .constdata
    adc_demo.o(i.adcMeasureCh) refers to adc_demo.o(.bss) for .bss
    adc_demo.o(i.adcMeasureTask) refers to adc_demo.o(i.adcMeasureCh) for adcMeasureCh
    adc_demo.o(i.adcMeasureTask) refers to adc_demo.o(i.my_hal_adc_value_cal) for my_hal_adc_value_cal
    adc_demo.o(i.adcMeasureTask) refers to fmul.o(.text) for __aeabi_fmul
    adc_demo.o(i.adcMeasureTask) refers to ffixi.o(.text) for __aeabi_f2iz
    adc_demo.o(i.adcMeasureTask) refers to my_printf.o(i.dbg_printf) for dbg_printf
    adc_demo.o(i.adcMeasureTask) refers to clock.o(i.WaitMs) for WaitMs
    adc_demo.o(i.adc_Init) refers to gpio.o(i.hal_gpio_pin_init) for hal_gpio_pin_init
    adc_demo.o(i.adc_Init) refers to gpio.o(i.hal_gpio_pull_set) for hal_gpio_pull_set
    adc_demo.o(i.adc_Init) refers to gpio.o(i.hal_gpio_write) for hal_gpio_write
    adc_demo.o(i.adc_Init) refers to pwm.o(i.hal_pwm_init) for hal_pwm_init
    adc_demo.o(i.adc_Init) refers to pwm.o(i.hal_pwm_open_channel) for hal_pwm_open_channel
    adc_demo.o(i.adc_Init) refers to pwm.o(i.hal_pwm_set_count_val) for hal_pwm_set_count_val
    adc_demo.o(i.adc_Init) refers to pwm.o(i.hal_pwm_start) for hal_pwm_start
    adc_demo.o(i.adc_Init) refers to clock.o(i.WaitMs) for WaitMs
    adc_demo.o(i.adc_Init) refers to pwm.o(i.hal_pwm_stop) for hal_pwm_stop
    adc_demo.o(i.adc_Init) refers to timer.o(i.hal_timer_init) for hal_timer_init
    adc_demo.o(i.adc_Init) refers to timer.o(i.hal_timer_set) for hal_timer_set
    adc_demo.o(i.adc_Init) refers to adc_demo.o(i.adcMeasureTask) for adcMeasureTask
    adc_demo.o(i.adc_Init) refers to adc_demo.o(.data) for .data
    adc_demo.o(i.adc_Init) refers to adc_demo.o(i.time_cb) for time_cb
    adc_demo.o(i.adc_ProcessEvent) refers to adc_demo.o(i.adcMeasureTask) for adcMeasureTask
    adc_demo.o(i.adc_ProcessEvent) refers to adc_demo.o(.data) for .data
    adc_demo.o(i.my_hal_adc_value_cal) refers to ffltui.o(.text) for __aeabi_ui2f
    adc_demo.o(i.my_hal_adc_value_cal) refers to fscalb.o(.text) for __ARM_scalbnf
    adc_demo.o(i.my_hal_adc_value_cal) refers to fadd.o(.text) for __aeabi_fsub
    adc_demo.o(i.my_hal_adc_value_cal) refers to f2d.o(.text) for __aeabi_f2d
    adc_demo.o(i.my_hal_adc_value_cal) refers to dmul.o(.text) for __aeabi_dmul
    adc_demo.o(i.my_hal_adc_value_cal) refers to d2f.o(.text) for __aeabi_d2f
    adc_demo.o(i.time_cb) refers to gpio.o(i.hal_gpio_write) for hal_gpio_write
    adc_demo.o(i.time_cb) refers to adc_demo.o(.data) for .data
    osal_adc.o(i.osalInitTasks) refers to adc_demo.o(i.adc_Init) for adc_Init
    osal_adc.o(i.osalInitTasks) refers to osal_adc.o(.data) for .data
    osal_adc.o(.constdata) refers to adc_demo.o(i.adc_ProcessEvent) for adc_ProcessEvent
    adc.o(i.adc_init_r) refers to gpio.o(i.hal_gpio_cfg_analog_io) for hal_gpio_cfg_analog_io
    adc.o(i.clear_adcc_cfg) refers to adc.o(.bss) for .bss
    adc.o(i.hal_ADC_IRQHandler) refers to adc.o(i.hal_adc_stop) for hal_adc_stop
    adc.o(i.hal_ADC_IRQHandler) refers to adc.o(.bss) for .bss
    adc.o(i.hal_adc_clock_config) refers to adc.o(.data) for .data
    adc.o(i.hal_adc_config_channel) refers to clock.o(i.hal_clk_gate_enable) for hal_clk_gate_enable
    adc.o(i.hal_adc_config_channel) refers to adc.o(i.set_sampling_resolution) for set_sampling_resolution
    adc.o(i.hal_adc_config_channel) refers to gpio.o(i.hal_gpio_pull_set) for hal_gpio_pull_set
    adc.o(i.hal_adc_config_channel) refers to gpio.o(i.hal_gpio_ds_control) for hal_gpio_ds_control
    adc.o(i.hal_adc_config_channel) refers to gpio.o(i.hal_gpio_cfg_analog_io) for hal_gpio_cfg_analog_io
    adc.o(i.hal_adc_config_channel) refers to adc.o(.data) for .data
    adc.o(i.hal_adc_config_channel) refers to adc.o(.bss) for .bss
    adc.o(i.hal_adc_init) refers to pwrmgr.o(i.hal_pwrmgr_register) for hal_pwrmgr_register
    adc.o(i.hal_adc_init) refers to adc.o(i.clear_adcc_cfg) for clear_adcc_cfg
    adc.o(i.hal_adc_init) refers to adc.o(.data) for .data
    adc.o(i.hal_adc_init) refers to adc.o(i.adc_wakeup_hdl) for adc_wakeup_hdl
    adc.o(i.hal_adc_start) refers to pwrmgr.o(i.hal_pwrmgr_lock) for hal_pwrmgr_lock
    adc.o(i.hal_adc_start) refers to adc.o(.data) for .data
    adc.o(i.hal_adc_start) refers to adc.o(.bss) for .bss
    adc.o(i.hal_adc_start) refers to adc.o(i.hal_ADC_IRQHandler) for hal_ADC_IRQHandler
    adc.o(i.hal_adc_stop) refers to gpio.o(i.hal_gpio_cfg_analog_io) for hal_gpio_cfg_analog_io
    adc.o(i.hal_adc_stop) refers to gpio.o(i.hal_gpio_pin_init) for hal_gpio_pin_init
    adc.o(i.hal_adc_stop) refers to gpio.o(i.hal_gpio_pull_set) for hal_gpio_pull_set
    adc.o(i.hal_adc_stop) refers to clock.o(i.hal_clk_gate_disable) for hal_clk_gate_disable
    adc.o(i.hal_adc_stop) refers to adc.o(i.clear_adcc_cfg) for clear_adcc_cfg
    adc.o(i.hal_adc_stop) refers to pwrmgr.o(i.hal_pwrmgr_unlock) for hal_pwrmgr_unlock
    adc.o(i.hal_adc_stop) refers to adc.o(.data) for .data
    adc.o(i.hal_adc_stop) refers to adc.o(.bss) for .bss
    adc.o(i.hal_adc_value_cal) refers to my_printf.o(i.dbg_printf) for dbg_printf
    adc.o(i.hal_adc_value_cal) refers to ffltui.o(.text) for __aeabi_ui2f
    adc.o(i.hal_adc_value_cal) refers to fflti.o(.text) for __aeabi_i2f
    adc.o(i.hal_adc_value_cal) refers to fdiv.o(.text) for __aeabi_fdiv
    adc.o(i.hal_adc_value_cal) refers to dflti.o(.text) for __aeabi_i2d
    adc.o(i.hal_adc_value_cal) refers to dscalb.o(.text) for __ARM_scalbn
    adc.o(i.hal_adc_value_cal) refers to d2f.o(.text) for __aeabi_d2f
    adc.o(i.hal_adc_value_cal) refers to fadd.o(.text) for __aeabi_fsub
    adc.o(i.hal_adc_value_cal) refers to fscalb.o(.text) for __ARM_scalbnf
    adc.o(i.hal_adc_value_cal) refers to fmul.o(.text) for __aeabi_fmul
    adc.o(i.hal_adc_value_cal) refers to f2d.o(.text) for __aeabi_f2d
    adc.o(i.hal_adc_value_cal) refers to dmul.o(.text) for __aeabi_dmul
    adc.o(i.hal_adc_value_cal) refers to ddiv.o(.text) for __aeabi_ddiv
    adc.o(i.hal_adc_value_cal) refers to adc.o(.data) for .data
    adc.o(i.hal_adc_value_cal) refers to adc.o(.constdata) for .constdata
    timer.o(i.hal_TIMER5_IRQHandler) refers to timer.o(.data) for .data
    timer.o(i.hal_TIMER6_IRQHandler) refers to timer.o(.data) for .data
    timer.o(i.hal_timer_deinit) refers to pwrmgr.o(i.hal_pwrmgr_unregister) for hal_pwrmgr_unregister
    timer.o(i.hal_timer_deinit) refers to timer.o(.data) for .data
    timer.o(i.hal_timer_init) refers to timer.o(i.hal_timer_stop) for hal_timer_stop
    timer.o(i.hal_timer_init) refers to pwrmgr.o(i.hal_pwrmgr_register) for hal_pwrmgr_register
    timer.o(i.hal_timer_init) refers to timer.o(.data) for .data
    timer.o(i.hal_timer_init) refers to timer.o(i.hal_timer_wakeup_handler) for hal_timer_wakeup_handler
    timer.o(i.hal_timer_init) refers to timer.o(i.hal_timer_sleep_handler) for hal_timer_sleep_handler
    timer.o(i.hal_timer_mask_int) refers to timer.o(.constdata) for .constdata
    timer.o(i.hal_timer_set) refers to timer.o(i.NVIC_SetPriority) for NVIC_SetPriority
    timer.o(i.hal_timer_set) refers to timer.o(i.hal_timer_set_loadtimer) for hal_timer_set_loadtimer
    timer.o(i.hal_timer_set) refers to clock.o(i.hal_clk_gate_enable) for hal_clk_gate_enable
    timer.o(i.hal_timer_set) refers to timer.o(i.hal_TIMER5_IRQHandler) for hal_TIMER5_IRQHandler
    timer.o(i.hal_timer_set) refers to timer.o(i.hal_TIMER6_IRQHandler) for hal_TIMER6_IRQHandler
    timer.o(i.hal_timer_sleep_handler) refers to timer.o(.data) for .data
    timer.o(i.hal_timer_stop) refers to timer.o(i.hal_timer_stop_counter) for hal_timer_stop_counter
    timer.o(i.hal_timer_stop) refers to clock.o(i.hal_clk_gate_disable) for hal_clk_gate_disable
    timer.o(i.hal_timer_wakeup_handler) refers to timer.o(.data) for .data
    pwm.o(i.hal_pwm_ch_enable) refers to pwm.o(.bss) for .bss
    pwm.o(i.hal_pwm_ch_reg) refers to pwm.o(.bss) for .bss
    pwm.o(i.hal_pwm_ch_start) refers to pwm.o(i.hal_pwm_init) for hal_pwm_init
    pwm.o(i.hal_pwm_ch_start) refers to pwm.o(i.hal_pwm_set_count_val) for hal_pwm_set_count_val
    pwm.o(i.hal_pwm_ch_start) refers to pwm.o(i.hal_pwm_open_channel) for hal_pwm_open_channel
    pwm.o(i.hal_pwm_ch_start) refers to pwm.o(i.hal_pwm_start) for hal_pwm_start
    pwm.o(i.hal_pwm_ch_start) refers to pwm.o(.bss) for .bss
    pwm.o(i.hal_pwm_ch_stop) refers to pwm.o(i.hal_pwm_destroy) for hal_pwm_destroy
    pwm.o(i.hal_pwm_ch_stop) refers to pwm.o(i.hal_pwm_close_channel) for hal_pwm_close_channel
    pwm.o(i.hal_pwm_ch_stop) refers to pwm.o(.bss) for .bss
    pwm.o(i.hal_pwm_close_channel) refers to gpio.o(i.hal_gpio_fmux) for hal_gpio_fmux
    pwm.o(i.hal_pwm_close_channel) refers to pwm.o(.data) for .data
    pwm.o(i.hal_pwm_init) refers to clock.o(i.hal_clk_gate_enable) for hal_clk_gate_enable
    pwm.o(i.hal_pwm_init) refers to pwrmgr.o(i.hal_pwrmgr_register) for hal_pwrmgr_register
    pwm.o(i.hal_pwm_module_deinit) refers to pwm.o(i.hal_pwm_close_channel) for hal_pwm_close_channel
    pwm.o(i.hal_pwm_module_deinit) refers to pwm.o(i.hal_pwm_destroy) for hal_pwm_destroy
    pwm.o(i.hal_pwm_module_deinit) refers to pwm.o(i.hal_pwm_stop) for hal_pwm_stop
    pwm.o(i.hal_pwm_module_deinit) refers to pwm.o(.bss) for .bss
    pwm.o(i.hal_pwm_module_init) refers to pwm.o(i.hal_pwm_destroy) for hal_pwm_destroy
    pwm.o(i.hal_pwm_module_init) refers to pwm.o(i.hal_pwm_stop) for hal_pwm_stop
    pwm.o(i.hal_pwm_module_init) refers to pwm.o(.bss) for .bss
    pwm.o(i.hal_pwm_open_channel) refers to gpio.o(i.hal_gpio_fmux_set) for hal_gpio_fmux_set
    pwm.o(i.hal_pwm_open_channel) refers to pwm.o(.data) for .data
    pwm.o(i.hal_pwm_start) refers to pwrmgr.o(i.hal_pwrmgr_lock) for hal_pwrmgr_lock
    pwm.o(i.hal_pwm_start) refers to pwm.o(.data) for .data
    pwm.o(i.hal_pwm_stop) refers to pwrmgr.o(i.hal_pwrmgr_unlock) for hal_pwrmgr_unlock
    pwm.o(i.hal_pwm_stop) refers to clock.o(i.hal_clk_gate_disable) for hal_clk_gate_disable
    pwm.o(i.hal_pwm_stop) refers to pwm.o(.data) for .data
    clock.o(i.hal_rtc_clock_config) refers to gpio.o(i.hal_gpio_pull_set) for hal_gpio_pull_set
    gpio.o(i.hal_GPIO_IRQHandler) refers to gpio.o(i.hal_gpioin_event) for hal_gpioin_event
    gpio.o(i.hal_gpio_cfg_analog_io) refers to gpio.o(i.hal_gpio_pull_set) for hal_gpio_pull_set
    gpio.o(i.hal_gpio_fmux_set) refers to gpio.o(i.hal_gpio_fmux) for hal_gpio_fmux
    gpio.o(i.hal_gpio_init) refers to gpio.o(i.NVIC_SetPriority) for NVIC_SetPriority
    gpio.o(i.hal_gpio_init) refers to pwrmgr.o(i.hal_pwrmgr_register) for hal_pwrmgr_register
    gpio.o(i.hal_gpio_init) refers to gpio.o(.bss) for .bss
    gpio.o(i.hal_gpio_init) refers to gpio.o(i.hal_gpio_wakeup_handler) for hal_gpio_wakeup_handler
    gpio.o(i.hal_gpio_init) refers to gpio.o(i.hal_gpio_sleep_handler) for hal_gpio_sleep_handler
    gpio.o(i.hal_gpio_pin_init) refers to gpio.o(i.hal_gpio_fmux) for hal_gpio_fmux
    gpio.o(i.hal_gpio_pin_init) refers to gpio.o(i.hal_gpio_pin2pin3_control) for hal_gpio_pin2pin3_control
    gpio.o(i.hal_gpio_pin_init) refers to gpio.o(i.hal_gpio_cfg_analog_io) for hal_gpio_cfg_analog_io
    gpio.o(i.hal_gpio_pin_init) refers to gpio.o(.bss) for .bss
    gpio.o(i.hal_gpio_pull_set) refers to gpio.o(.constdata) for .constdata
    gpio.o(i.hal_gpio_retention_enable) refers to gpio.o(.constdata) for .constdata
    gpio.o(i.hal_gpio_sleep_handler) refers to gpio.o(i.hal_gpio_retention_enable) for hal_gpio_retention_enable
    gpio.o(i.hal_gpio_sleep_handler) refers to gpio.o(i.hal_gpio_read) for hal_gpio_read
    gpio.o(i.hal_gpio_sleep_handler) refers to gpio.o(i.hal_gpio_wakeup_set) for hal_gpio_wakeup_set
    gpio.o(i.hal_gpio_sleep_handler) refers to gpio.o(.bss) for .bss
    gpio.o(i.hal_gpio_wakeup_control) refers to gpio.o(.constdata) for .constdata
    gpio.o(i.hal_gpio_wakeup_handler) refers to gpio.o(i.NVIC_SetPriority) for NVIC_SetPriority
    gpio.o(i.hal_gpio_wakeup_handler) refers to gpio.o(i.hal_gpio_pin2pin3_control) for hal_gpio_pin2pin3_control
    gpio.o(i.hal_gpio_wakeup_handler) refers to gpio.o(i.hal_gpio_read) for hal_gpio_read
    gpio.o(i.hal_gpio_wakeup_handler) refers to gpio.o(i.hal_gpio_write) for hal_gpio_write
    gpio.o(i.hal_gpio_wakeup_handler) refers to gpio.o(i.hal_gpio_retention_enable) for hal_gpio_retention_enable
    gpio.o(i.hal_gpio_wakeup_handler) refers to gpio.o(i.hal_gpioin_enable) for hal_gpioin_enable
    gpio.o(i.hal_gpio_wakeup_handler) refers to gpio.o(i.hal_gpioin_event_pin) for hal_gpioin_event_pin
    gpio.o(i.hal_gpio_wakeup_handler) refers to gpio.o(.bss) for .bss
    gpio.o(i.hal_gpio_wakeup_set) refers to gpio.o(i.hal_gpio_wakeup_control) for hal_gpio_wakeup_control
    gpio.o(i.hal_gpio_wakeup_set) refers to gpio.o(.constdata) for .constdata
    gpio.o(i.hal_gpio_wakeup_set) refers to gpio.o(.bss) for .bss
    gpio.o(i.hal_gpio_write) refers to gpio.o(i.hal_gpio_pin_init) for hal_gpio_pin_init
    gpio.o(i.hal_gpioin_disable) refers to gpio.o(i.hal_gpio_pin_init) for hal_gpio_pin_init
    gpio.o(i.hal_gpioin_disable) refers to gpio.o(.bss) for .bss
    gpio.o(i.hal_gpioin_enable) refers to gpio.o(i.hal_gpio_pin_init) for hal_gpio_pin_init
    gpio.o(i.hal_gpioin_enable) refers to gpio.o(i.hal_gpio_read) for hal_gpio_read
    gpio.o(i.hal_gpioin_enable) refers to gpio.o(i.hal_gpio_interrupt_enable) for hal_gpio_interrupt_enable
    gpio.o(i.hal_gpioin_enable) refers to gpio.o(.bss) for .bss
    gpio.o(i.hal_gpioin_event) refers to gpio.o(i.hal_gpioin_event_pin) for hal_gpioin_event_pin
    gpio.o(i.hal_gpioin_event) refers to gpio.o(i.hal_gpio_interrupt_enable) for hal_gpio_interrupt_enable
    gpio.o(i.hal_gpioin_event) refers to gpio.o(.bss) for .bss
    gpio.o(i.hal_gpioin_event_pin) refers to gpio.o(.bss) for .bss
    gpio.o(i.hal_gpioin_register) refers to gpio.o(i.hal_gpioin_disable) for hal_gpioin_disable
    gpio.o(i.hal_gpioin_register) refers to gpio.o(i.hal_gpioin_enable) for hal_gpioin_enable
    gpio.o(i.hal_gpioin_register) refers to gpio.o(.bss) for .bss
    gpio.o(i.hal_gpioin_register) refers to gpio.o(i.hal_GPIO_IRQHandler) for hal_GPIO_IRQHandler
    gpio.o(i.hal_gpioin_set_flag) refers to gpio.o(.bss) for .bss
    gpio.o(i.hal_gpioin_unregister) refers to gpio.o(i.hal_gpioin_disable) for hal_gpioin_disable
    gpio.o(i.hal_gpioin_unregister) refers to gpio.o(.bss) for .bss
    gpio.o(i.hal_gpioretention_register) refers to gpio.o(i.hal_gpio_pin_init) for hal_gpio_pin_init
    gpio.o(i.hal_gpioretention_register) refers to gpio.o(.bss) for .bss
    gpio.o(i.hal_gpioretention_unregister) refers to gpio.o(i.hal_gpio_pin_init) for hal_gpio_pin_init
    gpio.o(i.hal_gpioretention_unregister) refers to gpio.o(.bss) for .bss
    my_printf.o(i._uart_putc) refers to uart.o(i.hal_uart_send_buff) for hal_uart_send_buff
    my_printf.o(i.dbg_printf) refers to my_printf.o(i.log_vsprintf) for log_vsprintf
    my_printf.o(i.dbg_printf) refers to my_printf.o(i._uart_putc) for _uart_putc
    my_printf.o(i.dbg_printf_init) refers to uart.o(i.hal_uart_init) for hal_uart_init
    my_printf.o(i.dbg_printf_init) refers to my_printf.o(.constdata) for .constdata
    my_printf.o(i.log_vsprintf) refers to my_printf.o(i.skip_atoi) for skip_atoi
    my_printf.o(i.log_vsprintf) refers to my_printf.o(i.number) for number
    my_printf.o(i.my_dump_byte) refers to my_printf.o(i.dbg_printf) for dbg_printf
    my_printf.o(i.number) refers to my_printf.o(.data) for .data
    my_printf.o(.data) refers to my_printf.o(.conststring) for .conststring
    uart.o(_section_sram_code_) refers to uart.o(i.irq_rx_handler) for irq_rx_handler
    uart.o(_section_sram_code_) refers to uart.o(i.irq_tx_empty_handler) for irq_tx_empty_handler
    uart.o(i.hal_UART1_IRQHandler) refers to uart.o(i.irq_rx_handler) for irq_rx_handler
    uart.o(i.hal_UART1_IRQHandler) refers to uart.o(i.irq_tx_empty_handler) for irq_tx_empty_handler
    uart.o(i.hal_uart_deinit) refers to uart.o(i.uart_hw_deinit) for uart_hw_deinit
    uart.o(i.hal_uart_deinit) refers to pwrmgr.o(i.hal_pwrmgr_unregister) for hal_pwrmgr_unregister
    uart.o(i.hal_uart_deinit) refers to uart.o(.bss) for .bss
    uart.o(i.hal_uart_get_tx_ready) refers to uart.o(.bss) for .bss
    uart.o(i.hal_uart_init) refers to uart.o(i.uart_hw_init) for uart_hw_init
    uart.o(i.hal_uart_init) refers to pwrmgr.o(i.hal_pwrmgr_register) for hal_pwrmgr_register
    uart.o(i.hal_uart_init) refers to uart.o(.bss) for .bss
    uart.o(i.hal_uart_init) refers to uart.o(i.uart_wakeup_process_1) for uart_wakeup_process_1
    uart.o(i.hal_uart_init) refers to uart.o(i.uart_wakeup_process_0) for uart_wakeup_process_0
    uart.o(i.hal_uart_send_buff) refers to uart.o(i.txmit_buf_use_tx_buf) for txmit_buf_use_tx_buf
    uart.o(i.hal_uart_send_buff) refers to uart.o(i.txmit_buf_polling) for txmit_buf_polling
    uart.o(i.hal_uart_send_buff) refers to uart.o(.bss) for .bss
    uart.o(i.hal_uart_set_tx_buf) refers to uart.o(.bss) for .bss
    uart.o(i.irq_rx_handler) refers to uart.o(.bss) for .bss
    uart.o(i.irq_tx_empty_handler) refers to pwrmgr.o(i.hal_pwrmgr_unlock) for hal_pwrmgr_unlock
    uart.o(i.irq_tx_empty_handler) refers to uart.o(.bss) for .bss
    uart.o(i.irq_tx_empty_handler) refers to uart.o(.constdata) for .constdata
    uart.o(i.txmit_buf_use_tx_buf) refers to pwrmgr.o(i.hal_pwrmgr_lock) for hal_pwrmgr_lock
    uart.o(i.txmit_buf_use_tx_buf) refers to uart.o(.bss) for .bss
    uart.o(i.uart_hw_deinit) refers to gpio.o(i.hal_gpio_fmux) for hal_gpio_fmux
    uart.o(i.uart_hw_deinit) refers to clock.o(i.hal_clk_reset) for hal_clk_reset
    uart.o(i.uart_hw_deinit) refers to clock.o(i.hal_clk_gate_disable) for hal_clk_gate_disable
    uart.o(i.uart_hw_deinit) refers to uart.o(.bss) for .bss
    uart.o(i.uart_hw_init) refers to uart.o(i.uart_hw_deinit) for uart_hw_deinit
    uart.o(i.uart_hw_init) refers to clock.o(i.hal_clk_gate_enable) for hal_clk_gate_enable
    uart.o(i.uart_hw_init) refers to clock.o(i.hal_clk_reset) for hal_clk_reset
    uart.o(i.uart_hw_init) refers to gpio.o(i.hal_gpio_pull_set) for hal_gpio_pull_set
    uart.o(i.uart_hw_init) refers to gpio.o(i.hal_gpio_fmux_set) for hal_gpio_fmux_set
    uart.o(i.uart_hw_init) refers to uart.o(.bss) for .bss
    uart.o(i.uart_hw_init) refers to uart.o(i.hal_UART1_IRQHandler) for hal_UART1_IRQHandler
    uart.o(i.uart_hw_init) refers to uart.o(_section_sram_code_) for hal_UART0_IRQHandler
    uart.o(i.uart_wakeup_process_0) refers to uart.o(i.uart_hw_init) for uart_hw_init
    uart.o(i.uart_wakeup_process_1) refers to uart.o(i.uart_hw_init) for uart_hw_init
    pwrmgr.o(_section_standby_code_) refers to gpio.o(i.hal_gpio_pin2pin3_control) for hal_gpio_pin2pin3_control
    pwrmgr.o(_section_standby_code_) refers to pwrmgr.o(_section_standby_code_) for _section_standby_code_
    pwrmgr.o(i.hal_pwrmgr_LowCurrentLdo_enable) refers to flash.o(i.hal_flash_read) for hal_flash_read
    pwrmgr.o(i.hal_pwrmgr_RAM_retention) refers to pwrmgr.o(.data) for .data
    pwrmgr.o(i.hal_pwrmgr_RAM_retention_set) refers to pwrmgr.o(.data) for .data
    pwrmgr.o(i.hal_pwrmgr_clk_gate_config) refers to pwrmgr.o(.data) for .data
    pwrmgr.o(i.hal_pwrmgr_init) refers to pwrmgr.o(.bss) for .bss
    pwrmgr.o(i.hal_pwrmgr_init) refers to pwrmgr.o(.data) for .data
    pwrmgr.o(i.hal_pwrmgr_is_lock) refers to pwrmgr.o(.data) for .data
    pwrmgr.o(i.hal_pwrmgr_is_lock) refers to pwrmgr.o(.bss) for .bss
    pwrmgr.o(i.hal_pwrmgr_lock) refers to pwrmgr.o(.data) for .data
    pwrmgr.o(i.hal_pwrmgr_lock) refers to pwrmgr.o(.bss) for .bss
    pwrmgr.o(i.hal_pwrmgr_poweroff) refers to gpio.o(i.hal_gpio_pin2pin3_control) for hal_gpio_pin2pin3_control
    pwrmgr.o(i.hal_pwrmgr_register) refers to pwrmgr.o(.bss) for .bss
    pwrmgr.o(i.hal_pwrmgr_sleep_process) refers to pwrmgr.o(i.hal_pwrmgr_RAM_retention_set) for hal_pwrmgr_RAM_retention_set
    pwrmgr.o(i.hal_pwrmgr_sleep_process) refers to pwrmgr.o(.bss) for .bss
    pwrmgr.o(i.hal_pwrmgr_unlock) refers to pwrmgr.o(.data) for .data
    pwrmgr.o(i.hal_pwrmgr_unlock) refers to pwrmgr.o(.bss) for .bss
    pwrmgr.o(i.hal_pwrmgr_unregister) refers to pwrmgr.o(.bss) for .bss
    pwrmgr.o(i.hal_pwrmgr_wakeup_process) refers to pwrmgr.o(i.NVIC_SetPriority) for NVIC_SetPriority
    pwrmgr.o(i.hal_pwrmgr_wakeup_process) refers to pwrmgr.o(.data) for .data
    pwrmgr.o(i.hal_pwrmgr_wakeup_process) refers to pwrmgr.o(.bss) for .bss
    flash.o(i.LOG_CHIP_MADDR) refers to my_printf.o(i.dbg_printf) for dbg_printf
    flash.o(i.LOG_CHIP_MADDR) refers to flash.o(.data) for .data
    flash.o(i.check_chip_mAddr) refers to flash.o(i.read_chip_mAddr) for read_chip_mAddr
    flash.o(i.check_chip_mAddr) refers to flash.o(.data) for .data
    flash.o(i.flash_write_word) refers to flash.o(i.hal_flash_write) for hal_flash_write
    flash.o(i.hal_flash_erase_all) refers to flash.o(i._spif_wait_nobusy_x) for _spif_wait_nobusy_x
    flash.o(i.hal_flash_erase_all) refers to flash.o(i.hal_cache_tag_flush) for hal_cache_tag_flush
    flash.o(i.hal_flash_erase_block64) refers to flash.o(i._spif_wait_nobusy_x) for _spif_wait_nobusy_x
    flash.o(i.hal_flash_erase_block64) refers to flash.o(i.hal_cache_tag_flush) for hal_cache_tag_flush
    flash.o(i.hal_flash_erase_sector) refers to flash.o(i._spif_wait_nobusy_x) for _spif_wait_nobusy_x
    flash.o(i.hal_flash_erase_sector) refers to flash.o(i.hal_cache_tag_flush) for hal_cache_tag_flush
    flash.o(i.hal_flash_write) refers to flash.o(i._spif_wait_nobusy_x) for _spif_wait_nobusy_x
    flash.o(i.hal_flash_write_by_dma) refers to flash.o(i._spif_wait_nobusy_x) for _spif_wait_nobusy_x
    flash.o(i.hal_spif_cache_init) refers to flash.o(i.hw_spif_cache_config) for hw_spif_cache_config
    flash.o(i.hal_spif_cache_init) refers to pwrmgr.o(i.hal_pwrmgr_register) for hal_pwrmgr_register
    flash.o(i.hal_spif_cache_init) refers to flash.o(.data) for .data
    flash.o(i.hw_spif_cache_config) refers to clock.o(i.hal_clk_gate_enable) for hal_clk_gate_enable
    flash.o(i.hw_spif_cache_config) refers to flash.o(i.hal_cache_tag_flush) for hal_cache_tag_flush
    flash.o(i.hw_spif_cache_config) refers to flash.o(.data) for .data
    flash.o(i.read_chip_mAddr) refers to patch.o(i.chip_id_one_bit_hot_convter) for chip_id_one_bit_hot_convter
    flash.o(i.read_chip_mAddr) refers to flash.o(.data) for .data
    jump_table.o(.emb_text) refers to jump_table.o(i._hard_fault) for _hard_fault
    jump_table.o(i._hard_fault) refers to jump_table.o(.data) for .data
    jump_table.o(jump_table_mem_area) refers to osal_adc.o(i.osalInitTasks) for osalInitTasks
    jump_table.o(jump_table_mem_area) refers to osal_adc.o(.constdata) for tasksArr
    jump_table.o(jump_table_mem_area) refers to osal_adc.o(.constdata) for tasksCnt
    jump_table.o(jump_table_mem_area) refers to osal_adc.o(.data) for tasksEvents
    jump_table.o(jump_table_mem_area) refers (Weak) to pwrmgr.o(i.hal_pwrmgr_sleep_process) for hal_pwrmgr_sleep_process
    jump_table.o(jump_table_mem_area) refers (Weak) to pwrmgr.o(i.hal_pwrmgr_wakeup_process) for hal_pwrmgr_wakeup_process
    jump_table.o(jump_table_mem_area) refers to rf_phy_driver.o(i.rf_phy_ini) for rf_phy_ini
    jump_table.o(jump_table_mem_area) refers to jump_table.o(.emb_text) for hard_fault
    jump_table.o(jump_table_mem_area) refers (Weak) to uart.o(_section_sram_code_) for hal_UART0_IRQHandler
    startup_armcm0.o(RESET) refers to startup_armcm0.o(STACK) for __initial_sp
    startup_armcm0.o(RESET) refers to startup_armcm0.o(.text) for Reset_Handler
    startup_armcm0.o(.text) refers to system_armcm0.o(i.SystemInit) for SystemInit
    startup_armcm0.o(.text) refers to entry.o(.ARM.Collect$$$$00000000) for __main
    system_armcm0.o(i.SystemCoreClockUpdate) refers to system_armcm0.o(.data) for .data
    system_armcm0.o(i.SystemInit) refers to system_armcm0.o(.data) for .data
    patch.o(_section_xip_code_) refers to patch.o(.data) for .data
    patch.o(_section_xip_code_) refers to startup_armcm0.o(STACK) for __initial_sp
    patch.o(_section_xip_code_) refers to main.o(.data) for g_clk32K_config
    patch.o(_section_xip_code_) refers to patch.o(i.ll_hw_go1) for ll_hw_go1
    patch.o(_section_xip_code_) refers to patch.o(i.LL_IRQHandler1) for LL_IRQHandler1
    patch.o(_section_xip_code_) refers to rf_phy_driver.o(i.rf_calibrate1) for rf_calibrate1
    patch.o(_section_xip_code_) refers to rf_phy_driver.o(i.rf_phy_change_cfg0) for rf_phy_change_cfg0
    patch.o(_section_xip_code_) refers to patch.o(i.LL_ENC_AES128_Encrypt1) for LL_ENC_AES128_Encrypt1
    patch.o(_section_xip_code_) refers to patch.o(i.LL_ENC_Encrypt1) for LL_ENC_Encrypt1
    patch.o(_section_xip_code_) refers to patch.o(i.LL_ENC_Decrypt1) for LL_ENC_Decrypt1
    patch.o(_section_xip_code_) refers to patch.o(i.wakeup_init1) for wakeup_init1
    patch.o(_section_xip_code_) refers to patch.o(i.l2capPocessFragmentTxData) for l2capPocessFragmentTxData
    patch.o(_section_xip_code_) refers to patch.o(i.LL_SetDataLengh1) for LL_SetDataLengh1
    patch.o(_section_xip_code_) refers to patch.o(i.llProcessTxData1) for llProcessTxData1
    patch.o(_section_xip_code_) refers to patch.o(i.ll_generateTxBuffer1) for ll_generateTxBuffer1
    patch.o(_section_xip_code_) refers to patch.o(.bss) for .bss
    patch.o(_section_xip_code_) refers to phy_sec_ext.o(.data) for s_company_id
    patch.o(i.HCI_LE_ConnUpdateCmd) refers to patch.o(i.LL_ConnUpdate1) for LL_ConnUpdate1
    patch.o(i.HCI_LE_LtkReqNegReplyCmd) refers to patch.o(i.LL_EncLtkNegReply) for LL_EncLtkNegReply
    patch.o(i.HCI_LE_LtkReqReplyCmd) refers to patch.o(i.LL_EncLtkReply) for LL_EncLtkReply
    patch.o(i.LL_CreateConn1) refers to patch.o(.data) for .data
    patch.o(i.LL_IRQHandler1) refers to patch.o(i.ll_processBasicIRQ_SRX) for ll_processBasicIRQ_SRX
    patch.o(i.LL_IRQHandler1) refers to patch.o(i.ll_processBasicIRQ_secondaryAdvTRX) for ll_processBasicIRQ_secondaryAdvTRX
    patch.o(i.LL_PLUS_GetCurrentRSSI) refers to rf_phy_driver.o(i.rf_phy_get_pktFoot) for rf_phy_get_pktFoot
    patch.o(i.LL_PLUS_LoadMACFromChipMAddr) refers to flash.o(i.check_chip_mAddr) for check_chip_mAddr
    patch.o(i.LL_PLUS_LoadMACFromChipMAddr) refers to flash.o(.data) for g_chipMAddr
    patch.o(i.LL_SetAdvControl1) refers to patch.o(.data) for .data
    patch.o(i.LL_SetScanControl1) refers to patch.o(.data) for .data
    patch.o(i.check_16MXtal_by_rcTracking) refers to rf_phy_driver.o(.data) for g_rc32kCalRes
    patch.o(i.check_16MXtal_by_rcTracking) refers to patch.o(.data) for .data
    patch.o(i.check_96MXtal_by_rcTracking) refers to rf_phy_driver.o(.data) for g_rc32kCalRes
    patch.o(i.check_96MXtal_by_rcTracking) refers to patch.o(.data) for .data
    patch.o(i.hal_rom_boot_init) refers to phy_sec_ext.o(i._rom_sec_boot_init) for _rom_sec_boot_init
    patch.o(i.llCalcMaxScanTime1) refers to patch.o(i.read_LL_remainder_time1) for read_LL_remainder_time1
    patch.o(i.llCalcMaxScanTime1) refers to patch.o(.data) for .data
    patch.o(i.llProcessMasterControlProcedures1) refers to patch.o(i.llSetupStartEncRsp) for llSetupStartEncRsp
    patch.o(i.llProcessSlaveControlProcedures1) refers to patch.o(i.llSetupStartEncRsp) for llSetupStartEncRsp
    patch.o(i.llSecAdvAllow1) refers to patch.o(i.read_LL_remainder_time1) for read_LL_remainder_time1
    patch.o(i.llSecAdvAllow1) refers to patch.o(.data) for .data
    patch.o(i.llSetupSecAdvEvt1) refers to rf_phy_driver.o(i.rf_phy_change_cfg0) for rf_phy_change_cfg0
    patch.o(i.ll_hw_go1) refers to patch.o(.data) for .data
    patch.o(i.ll_patch_master) refers to patch.o(i.llMasterEvt_TaskEndOk1) for llMasterEvt_TaskEndOk1
    patch.o(i.ll_patch_master) refers to patch.o(i.LL_SetScanParam1) for LL_SetScanParam1
    patch.o(i.ll_patch_master) refers to patch.o(i.LL_SetScanControl1) for LL_SetScanControl1
    patch.o(i.ll_patch_master) refers to patch.o(i.LL_CreateConn1) for LL_CreateConn1
    patch.o(i.ll_patch_master) refers to patch.o(i.LL_StartEncrypt1) for LL_StartEncrypt1
    patch.o(i.ll_patch_master) refers to patch.o(i.LL_ENC_Decrypt1) for LL_ENC_Decrypt1
    patch.o(i.ll_patch_master) refers to patch.o(i.llProcessMasterControlProcedures1) for llProcessMasterControlProcedures1
    patch.o(i.ll_patch_master) refers to patch.o(i.llProcessSlaveControlProcedures1) for llProcessSlaveControlProcedures1
    patch.o(i.ll_patch_master) refers to patch.o(i.ll_processBasicIRQ_SRX0) for ll_processBasicIRQ_SRX0
    patch.o(i.ll_patch_multi) refers to patch.o(i.ll_patch_slave) for ll_patch_slave
    patch.o(i.ll_patch_multi) refers to patch.o(i.ll_patch_master) for ll_patch_master
    patch.o(i.ll_patch_multi) refers to patch.o(i.ll_scheduler1) for ll_scheduler1
    patch.o(i.ll_patch_multi) refers to patch.o(i.ll_processBasicIRQ_secondaryAdvTRX0) for ll_processBasicIRQ_secondaryAdvTRX0
    patch.o(i.ll_patch_slave) refers to patch.o(i.LL_SetAdvParam1) for LL_SetAdvParam1
    patch.o(i.ll_patch_slave) refers to patch.o(i.llCalcMaxScanTime1) for llCalcMaxScanTime1
    patch.o(i.ll_patch_slave) refers to patch.o(i.llSecAdvAllow1) for llSecAdvAllow1
    patch.o(i.ll_patch_slave) refers to patch.o(i.LL_SetAdvControl1) for LL_SetAdvControl1
    patch.o(i.ll_patch_slave) refers to patch.o(i.llSetupSecAdvEvt1) for llSetupSecAdvEvt1
    patch.o(i.ll_processBasicIRQ_SRX0) refers to patch.o(.data) for .data
    patch.o(i.ll_processBasicIRQ_secondaryAdvTRX0) refers to patch.o(.data) for .data
    patch.o(i.ll_scheduler1) refers to patch.o(.data) for .data
    patch.o(i.osal_memory_statics) refers to main.o(.bss) for g_largeHeap
    patch.o(i.wakeup_init1) refers to patch.o(i.check_16MXtal_by_rcTracking) for check_16MXtal_by_rcTracking
    patch.o(i.wakeup_init1) refers to patch.o(i.check_96MXtal_by_rcTracking) for check_96MXtal_by_rcTracking
    patch.o(i.wakeup_init1) refers to patch.o(i.NVIC_EnableIRQ) for NVIC_EnableIRQ
    patch.o(i.wakeup_init1) refers to patch.o(.data) for .data
    rf_phy_driver.o(i.DTM_UART_IRQHandler) refers to rf_phy_driver.o(.data) for .data
    rf_phy_driver.o(i.DTM_UART_IRQHandler) refers to rf_phy_driver.o(.bss) for .bss
    rf_phy_driver.o(i.rf_calibrate1) refers to rf_phy_driver.o(i.rf_phy_ana_cfg) for rf_phy_ana_cfg
    rf_phy_driver.o(i.rf_calibrate1) refers to rf_phy_driver.o(i.rf_tpCal_gen_cap_arrary) for rf_tpCal_gen_cap_arrary
    rf_phy_driver.o(i.rf_calibrate1) refers to rf_phy_driver.o(i.rf_rxDcoc_cfg) for rf_rxDcoc_cfg
    rf_phy_driver.o(i.rf_calibrate1) refers to rf_phy_driver.o(i.rc32k_calibration) for rc32k_calibration
    rf_phy_driver.o(i.rf_calibrate1) refers to rf_phy_driver.o(.data) for .data
    rf_phy_driver.o(i.rf_phy_direct_test) refers to my_printf.o(i.dbg_printf_init) for dbg_printf_init
    rf_phy_driver.o(i.rf_phy_direct_test) refers to my_printf.o(i.dbg_printf) for dbg_printf
    rf_phy_driver.o(i.rf_phy_direct_test) refers to rf_phy_driver.o(i.NVIC_DisableIRQ) for NVIC_DisableIRQ
    rf_phy_driver.o(i.rf_phy_direct_test) refers to rf_phy_driver.o(i.rf_phy_dtm_cmd_parse) for rf_phy_dtm_cmd_parse
    rf_phy_driver.o(i.rf_phy_direct_test) refers to rf_phy_driver.o(i.rf_phy_dtm_evt_send) for rf_phy_dtm_evt_send
    rf_phy_driver.o(i.rf_phy_direct_test) refers to rf_phy_driver.o(i.rf_phy_dtm_trigged) for rf_phy_dtm_trigged
    rf_phy_driver.o(i.rf_phy_direct_test) refers to rf_phy_driver.o(i.rf_phy_get_pktFoot) for rf_phy_get_pktFoot
    rf_phy_driver.o(i.rf_phy_direct_test) refers to clock.o(i.WaitUs) for WaitUs
    rf_phy_driver.o(i.rf_phy_direct_test) refers to rf_phy_driver.o(i.DTM_UART_IRQHandler) for DTM_UART_IRQHandler
    rf_phy_driver.o(i.rf_phy_direct_test) refers to rf_phy_driver.o(.data) for .data
    rf_phy_driver.o(i.rf_phy_direct_test) refers to rf_phy_driver.o(.bss) for .bss
    rf_phy_driver.o(i.rf_phy_dtm_ble_pkt_gen) refers to rf_phy_driver.o(i.gen_pn_prbs9) for gen_pn_prbs9
    rf_phy_driver.o(i.rf_phy_dtm_evt_send) refers to uart.o(i.hal_uart_send_byte) for hal_uart_send_byte
    rf_phy_driver.o(i.rf_phy_dtm_ext_rx_demod_burst) refers to rf_phy_driver.o(i.rf_phy_dtm_init) for rf_phy_dtm_init
    rf_phy_driver.o(i.rf_phy_dtm_ext_rx_demod_burst) refers to rf_phy_driver.o(i.rf_phy_dtm_trigged) for rf_phy_dtm_trigged
    rf_phy_driver.o(i.rf_phy_dtm_ext_rx_demod_burst) refers to clock.o(i.hal_systick) for hal_systick
    rf_phy_driver.o(i.rf_phy_dtm_ext_rx_demod_burst) refers to rf_phy_driver.o(i.rf_phy_get_pktFoot) for rf_phy_get_pktFoot
    rf_phy_driver.o(i.rf_phy_dtm_ext_rx_demod_burst) refers to clock.o(i.hal_ms_intv) for hal_ms_intv
    rf_phy_driver.o(i.rf_phy_dtm_ext_rx_demod_burst) refers to rf_phy_driver.o(i.rf_phy_dtm_stop) for rf_phy_dtm_stop
    rf_phy_driver.o(i.rf_phy_dtm_ext_tx_mod_burst) refers to rf_phy_driver.o(i.rf_phy_dtm_init) for rf_phy_dtm_init
    rf_phy_driver.o(i.rf_phy_dtm_ext_tx_mod_burst) refers to rf_phy_driver.o(i.rf_phy_dtm_trigged) for rf_phy_dtm_trigged
    rf_phy_driver.o(i.rf_phy_dtm_ext_tx_mod_burst) refers to rf_phy_driver.o(i.rf_phy_dtm_stop) for rf_phy_dtm_stop
    rf_phy_driver.o(i.rf_phy_dtm_ext_tx_modulation) refers to rf_phy_driver.o(i.rf_phy_dtm_init) for rf_phy_dtm_init
    rf_phy_driver.o(i.rf_phy_dtm_ext_tx_modulation) refers to rf_phy_driver.o(i.rf_phy_dtm_trigged) for rf_phy_dtm_trigged
    rf_phy_driver.o(i.rf_phy_dtm_ext_tx_modulation) refers to clock.o(i.WaitUs) for WaitUs
    rf_phy_driver.o(i.rf_phy_dtm_ext_tx_modulation) refers to rf_phy_driver.o(i.rf_phy_dtm_stop) for rf_phy_dtm_stop
    rf_phy_driver.o(i.rf_phy_dtm_ext_tx_singleTone) refers to rf_phy_driver.o(i.rf_phy_dtm_init) for rf_phy_dtm_init
    rf_phy_driver.o(i.rf_phy_dtm_ext_tx_singleTone) refers to rf_phy_driver.o(i.rf_phy_dtm_trigged) for rf_phy_dtm_trigged
    rf_phy_driver.o(i.rf_phy_dtm_ext_tx_singleTone) refers to clock.o(i.WaitUs) for WaitUs
    rf_phy_driver.o(i.rf_phy_dtm_ext_tx_singleTone) refers to rf_phy_driver.o(i.rf_phy_dtm_stop) for rf_phy_dtm_stop
    rf_phy_driver.o(i.rf_phy_dtm_init) refers to rf_phy_driver.o(i.NVIC_DisableIRQ) for NVIC_DisableIRQ
    rf_phy_driver.o(i.rf_phy_dtm_trigged) refers to rf_phy_driver.o(i.rf_phy_ana_cfg) for rf_phy_ana_cfg
    rf_phy_driver.o(i.rf_phy_dtm_trigged) refers to rf_phy_driver.o(i.rf_rxDcoc_cfg) for rf_rxDcoc_cfg
    rf_phy_driver.o(i.rf_phy_dtm_trigged) refers to rf_phy_driver.o(i.rf_phy_ini) for rf_phy_ini
    rf_phy_driver.o(i.rf_phy_dtm_trigged) refers to rf_phy_driver.o(i.rf_tpCal_cfg_avg) for rf_tpCal_cfg_avg
    rf_phy_driver.o(i.rf_phy_dtm_trigged) refers to rf_phy_driver.o(i.rf_phy_set_txPower) for rf_phy_set_txPower
    rf_phy_driver.o(i.rf_phy_dtm_trigged) refers to rf_phy_driver.o(i.rf_phy_dtm_ble_pkt_gen) for rf_phy_dtm_ble_pkt_gen
    rf_phy_driver.o(i.rf_phy_dtm_trigged) refers to rf_phy_driver.o(i.rf_phy_dtm_zigbee_pkt_gen) for rf_phy_dtm_zigbee_pkt_gen
    rf_phy_driver.o(i.rf_phy_ini) refers to rf_phy_driver.o(i.rf_phy_ana_cfg) for rf_phy_ana_cfg
    rf_phy_driver.o(i.rf_phy_ini) refers to rf_phy_driver.o(i.rf_phy_set_txPower) for rf_phy_set_txPower
    rf_phy_driver.o(i.rf_phy_ini) refers to rf_phy_driver.o(i.rf_phy_bb_cfg) for rf_phy_bb_cfg
    rf_phy_driver.o(i.rf_tpCal_cfg) refers to rf_phy_driver.o(i.rf_tp_cal) for rf_tp_cal
    rf_phy_driver.o(i.rf_tpCal_cfg_avg) refers to rf_phy_driver.o(i.rf_tp_cal) for rf_tp_cal
    rf_phy_driver.o(i.rf_tpCal_gen_cap_arrary) refers to rf_phy_driver.o(i.rf_tp_cal) for rf_tp_cal
    phy_sec_ext.o(i.PHY_Varify_Platform) refers to phy_sec_ext.o(.constdata) for .constdata
    phy_sec_ext.o(i._efuse_chip_version_check) refers to phy_sec_ext.o(i.finidv) for finidv
    phy_sec_ext.o(i._rom_sec_boot_init) refers to phy_sec_ext.o(i._efuse_chip_version_check) for _efuse_chip_version_check
    phy_sec_ext.o(i.finidv) refers to phy_sec_ext.o(.data) for .data
    phy_sec_ext.o(i.finidv) refers to phy_sec_ext.o(.bss) for .bss
    phy_sec_ext.o(i.verify_mic) refers to phy_sec_ext.o(i.finidv) for finidv
    phy_sec_ext.o(i.verify_mic) refers to aes.o(i.flash_load_parition) for flash_load_parition
    phy_sec_ext.o(.data) refers to phy_sec_ext.o(.conststring) for .conststring
    aes.o(i.KeyExpansion) refers to aes.o(i.getByte) for getByte
    aes.o(i.KeyExpansion) refers to aes.o(i.getBit) for getBit
    aes.o(i.KeyExpansion) refers to aes.o(.constdata) for .constdata
    aes.o(i.KeyExpansion) refers to aes.o(.data) for sBox
    aes.o(i.MixColumns) refers to aes.o(i.xtime) for xtime
    aes.o(i.SubBytes) refers to aes.o(.data) for sBox
    aes.o(i.flash_check_parition) refers to phy_sec_ext.o(.bss) for g_ota_sec_key
    aes.o(i.flash_load_parition) refers to phy_sec_ext.o(.bss) for g_ota_sec_key
    aes.o(i.is_crypto_app) refers to phy_sec_ext.o(i.finidv) for finidv
    aes.o(i.xtime) refers to aes.o(i.getBit) for getBit
    aes.o(i.xtime) refers to aes.o(i.getByte) for getByte
    entry.o(.ARM.Collect$$$$00000000) refers (Special) to entry10a.o(.ARM.Collect$$$$0000000D) for __rt_final_cpp
    entry.o(.ARM.Collect$$$$00000000) refers (Special) to entry11a.o(.ARM.Collect$$$$0000000F) for __rt_final_exit
    entry.o(.ARM.Collect$$$$00000000) refers (Special) to entry7b.o(.ARM.Collect$$$$00000008) for _main_clock
    entry.o(.ARM.Collect$$$$00000000) refers (Special) to entry8b.o(.ARM.Collect$$$$0000000A) for _main_cpp_init
    entry.o(.ARM.Collect$$$$00000000) refers (Special) to entry9a.o(.ARM.Collect$$$$0000000B) for _main_init
    entry.o(.ARM.Collect$$$$00000000) refers (Special) to entry5.o(.ARM.Collect$$$$00000004) for _main_scatterload
    entry.o(.ARM.Collect$$$$00000000) refers (Special) to entry2.o(.ARM.Collect$$$$00000001) for _main_stk
    fadd.o(.text) refers (Special) to iusefp.o(.text) for __I$use$fp
    fadd.o(.text) refers to fepilogue.o(.text) for _float_epilogue
    fmul.o(.text) refers (Special) to iusefp.o(.text) for __I$use$fp
    fdiv.o(.text) refers (Special) to iusefp.o(.text) for __I$use$fp
    fdiv.o(.text) refers to fepilogue.o(.text) for _float_round
    fscalb.o(.text) refers (Special) to iusefp.o(.text) for __I$use$fp
    dmul.o(.text) refers (Special) to iusefp.o(.text) for __I$use$fp
    dmul.o(.text) refers to depilogue.o(.text) for _double_epilogue
    ddiv.o(.text) refers (Special) to iusefp.o(.text) for __I$use$fp
    ddiv.o(.text) refers to depilogue.o(.text) for _double_round
    dscalb.o(.text) refers (Special) to iusefp.o(.text) for __I$use$fp
    fflti.o(.text) refers (Special) to iusefp.o(.text) for __I$use$fp
    fflti.o(.text) refers to fepilogue.o(.text) for _float_epilogue
    ffltui.o(.text) refers (Special) to iusefp.o(.text) for __I$use$fp
    ffltui.o(.text) refers to fepilogue.o(.text) for _float_epilogue
    dflti.o(.text) refers (Special) to iusefp.o(.text) for __I$use$fp
    dflti.o(.text) refers to depilogue.o(.text) for _double_epilogue
    ffixi.o(.text) refers (Special) to iusefp.o(.text) for __I$use$fp
    f2d.o(.text) refers (Special) to iusefp.o(.text) for __I$use$fp
    d2f.o(.text) refers (Special) to iusefp.o(.text) for __I$use$fp
    d2f.o(.text) refers to fepilogue.o(.text) for _float_round
    entry2.o(.ARM.Collect$$$$00000001) refers to entry2.o(.ARM.Collect$$$$00002712) for __lit__00000000
    entry2.o(.ARM.Collect$$$$00002712) refers to startup_armcm0.o(STACK) for __initial_sp
    entry2.o(__vectab_stack_and_reset_area) refers to startup_armcm0.o(STACK) for __initial_sp
    entry2.o(__vectab_stack_and_reset_area) refers to entry.o(.ARM.Collect$$$$00000000) for __main
    entry5.o(.ARM.Collect$$$$00000004) refers to init.o(.text) for __scatterload
    entry9a.o(.ARM.Collect$$$$0000000B) refers to main.o(i.main) for main
    entry9b.o(.ARM.Collect$$$$0000000C) refers to main.o(i.main) for main
    depilogue.o(.text) refers to depilogue.o(i.__ARM_clz) for __ARM_clz
    depilogue.o(.text) refers to llshl.o(.text) for __aeabi_llsl
    depilogue.o(.text) refers to llushr.o(.text) for __aeabi_llsr
    init.o(.text) refers to entry5.o(.ARM.Collect$$$$00000004) for __main_after_scatterload


==============================================================================

Removing Unused input sections from the image.

    Removing main.o(.rev16_text), (4 bytes).
    Removing main.o(.revsh_text), (4 bytes).
    Removing main.o(.data), (1 bytes).
    Removing adc_demo.o(.rev16_text), (4 bytes).
    Removing adc_demo.o(.revsh_text), (4 bytes).
    Removing adc_demo.o(.bss), (768 bytes).
    Removing adc_demo.o(.bss), (116 bytes).
    Removing adc_main.o(.rev16_text), (4 bytes).
    Removing adc_main.o(.revsh_text), (4 bytes).
    Removing osal_adc.o(.rev16_text), (4 bytes).
    Removing osal_adc.o(.revsh_text), (4 bytes).
    Removing adc.o(.rev16_text), (4 bytes).
    Removing adc.o(.revsh_text), (4 bytes).
    Removing adc.o(i.hal_adc_clock_config), (40 bytes).
    Removing adc.o(i.hal_adc_config_channel), (672 bytes).
    Removing adc.o(i.hal_adc_start), (96 bytes).
    Removing adc.o(i.hal_adc_value_cal), (368 bytes).
    Removing adc.o(i.set_sampling_resolution), (176 bytes).
    Removing adc.o(.constdata), (36 bytes).
    Removing timer.o(.rev16_text), (4 bytes).
    Removing timer.o(.revsh_text), (4 bytes).
    Removing timer.o(i.hal_timer_deinit), (20 bytes).
    Removing timer.o(i.hal_timer_mask_int), (36 bytes).
    Removing timer.o(.constdata), (8 bytes).
    Removing pwm.o(.rev16_text), (4 bytes).
    Removing pwm.o(.revsh_text), (4 bytes).
    Removing pwm.o(i.hal_pwm_ch_enable), (12 bytes).
    Removing pwm.o(i.hal_pwm_ch_reg), (24 bytes).
    Removing pwm.o(i.hal_pwm_ch_start), (124 bytes).
    Removing pwm.o(i.hal_pwm_ch_stop), (36 bytes).
    Removing pwm.o(i.hal_pwm_close_channel), (48 bytes).
    Removing pwm.o(i.hal_pwm_destroy), (84 bytes).
    Removing pwm.o(i.hal_pwm_module_deinit), (72 bytes).
    Removing pwm.o(i.hal_pwm_module_init), (68 bytes).
    Removing pwm.o(.bss), (68 bytes).
    Removing clock.o(.rev16_text), (4 bytes).
    Removing clock.o(.revsh_text), (4 bytes).
    Removing clock.o(i.hal_clk_gate_get), (36 bytes).
    Removing clock.o(i.hal_clk_get_modules_state), (18 bytes).
    Removing clock.o(i.hal_ms_intv), (40 bytes).
    Removing clock.o(i.hal_system_soft_reset), (14 bytes).
    Removing clock.o(i.hal_systick), (12 bytes).
    Removing gpio.o(.rev16_text), (4 bytes).
    Removing gpio.o(.revsh_text), (4 bytes).
    Removing gpio.o(i.hal_gpio_debug_mux), (28 bytes).
    Removing gpio.o(i.hal_gpio_ds_control), (28 bytes).
    Removing gpio.o(i.hal_gpio_fast_write), (28 bytes).
    Removing gpio.o(i.hal_gpioin_disable), (72 bytes).
    Removing gpio.o(i.hal_gpioin_register), (64 bytes).
    Removing gpio.o(i.hal_gpioin_set_flag), (16 bytes).
    Removing gpio.o(i.hal_gpioin_unregister), (36 bytes).
    Removing gpio.o(i.hal_gpioretention_register), (36 bytes).
    Removing gpio.o(i.hal_gpioretention_unregister), (36 bytes).
    Removing my_printf.o(.rev16_text), (4 bytes).
    Removing my_printf.o(.revsh_text), (4 bytes).
    Removing my_printf.o(i.my_dump_byte), (44 bytes).
    Removing uart.o(.rev16_text), (4 bytes).
    Removing uart.o(.revsh_text), (4 bytes).
    Removing uart.o(i.hal_uart_deinit), (48 bytes).
    Removing uart.o(i.hal_uart_get_tx_ready), (32 bytes).
    Removing uart.o(i.hal_uart_send_byte), (76 bytes).
    Removing uart.o(i.hal_uart_set_tx_buf), (72 bytes).
    Removing pwrmgr.o(.rev16_text), (4 bytes).
    Removing pwrmgr.o(.revsh_text), (4 bytes).
    Removing pwrmgr.o(_section_standby_code_), (360 bytes).
    Removing pwrmgr.o(i.hal_pwrmgr_LowCurrentLdo_disable), (20 bytes).
    Removing pwrmgr.o(i.hal_pwrmgr_RAM_retention_clr), (20 bytes).
    Removing pwrmgr.o(i.hal_pwrmgr_clk_gate_config), (40 bytes).
    Removing pwrmgr.o(i.hal_pwrmgr_is_lock), (84 bytes).
    Removing pwrmgr.o(i.hal_pwrmgr_poweroff), (112 bytes).
    Removing pwrmgr.o(i.hal_pwrmgr_unregister), (72 bytes).
    Removing flash.o(.rev16_text), (4 bytes).
    Removing flash.o(.revsh_text), (4 bytes).
    Removing flash.o(i.LOG_CHIP_MADDR), (172 bytes).
    Removing flash.o(i._spif_wait_nobusy_x), (104 bytes).
    Removing flash.o(i.check_chip_mAddr), (32 bytes).
    Removing flash.o(i.flash_write_word), (18 bytes).
    Removing flash.o(i.hal_flash_erase_all), (168 bytes).
    Removing flash.o(i.hal_flash_erase_block64), (172 bytes).
    Removing flash.o(i.hal_flash_erase_sector), (172 bytes).
    Removing flash.o(i.hal_flash_write), (160 bytes).
    Removing flash.o(i.hal_flash_write_by_dma), (160 bytes).
    Removing flash.o(i.read_chip_mAddr), (64 bytes).
    Removing jump_table.o(.rev16_text), (4 bytes).
    Removing jump_table.o(.revsh_text), (4 bytes).
    Removing startup_armcm0.o(HEAP), (3072 bytes).
    Removing system_armcm0.o(.rev16_text), (4 bytes).
    Removing system_armcm0.o(.revsh_text), (4 bytes).
    Removing system_armcm0.o(i.SystemCoreClockUpdate), (16 bytes).
    Removing patch.o(.rev16_text), (4 bytes).
    Removing patch.o(.revsh_text), (4 bytes).
    Removing patch.o(i.HCI_LE_ConnUpdateCmd), (28 bytes).
    Removing patch.o(i.HCI_LE_LtkReqNegReplyCmd), (40 bytes).
    Removing patch.o(i.HCI_LE_LtkReqReplyCmd), (40 bytes).
    Removing patch.o(i.HCI_LE_SetHostChanClassificationCmd), (88 bytes).
    Removing patch.o(i.LL_ConnUpdate1), (240 bytes).
    Removing patch.o(i.LL_CreateConn1), (64 bytes).
    Removing patch.o(i.LL_EncLtkNegReply), (76 bytes).
    Removing patch.o(i.LL_EncLtkReply), (88 bytes).
    Removing patch.o(i.LL_PLUS_GetCurrentPduDle), (56 bytes).
    Removing patch.o(i.LL_PLUS_GetCurrentRSSI), (22 bytes).
    Removing patch.o(i.LL_PLUS_LoadMACFromChipMAddr), (48 bytes).
    Removing patch.o(i.LL_PLUS_LoadMACFromFlash), (48 bytes).
    Removing patch.o(i.LL_SetAdvControl1), (488 bytes).
    Removing patch.o(i.LL_SetAdvParam1), (80 bytes).
    Removing patch.o(i.LL_SetScanControl1), (372 bytes).
    Removing patch.o(i.LL_SetScanParam1), (76 bytes).
    Removing patch.o(i.LL_StartEncrypt1), (232 bytes).
    Removing patch.o(i.LOG_PATCH_DATA_TIME), (2 bytes).
    Removing patch.o(i.chip_id_one_bit_hot_convter), (108 bytes).
    Removing patch.o(i.llCalcMaxScanTime1), (64 bytes).
    Removing patch.o(i.llMasterEvt_TaskEndOk1), (348 bytes).
    Removing patch.o(i.llProcessMasterControlProcedures1), (1204 bytes).
    Removing patch.o(i.llProcessSlaveControlProcedures1), (848 bytes).
    Removing patch.o(i.llSecAdvAllow1), (80 bytes).
    Removing patch.o(i.llSetupSecAdvEvt1), (152 bytes).
    Removing patch.o(i.llSetupStartEncRsp), (64 bytes).
    Removing patch.o(i.ll_patch_master), (100 bytes).
    Removing patch.o(i.ll_patch_multi), (40 bytes).
    Removing patch.o(i.ll_patch_slave), (56 bytes).
    Removing patch.o(i.ll_processBasicIRQ_SRX0), (2304 bytes).
    Removing patch.o(i.ll_processBasicIRQ_secondaryAdvTRX0), (1056 bytes).
    Removing patch.o(i.ll_scheduler1), (996 bytes).
    Removing patch.o(i.osal_memory_statics), (76 bytes).
    Removing patch.o(i.pplus_enter_programming_mode), (140 bytes).
    Removing patch.o(i.read_LL_remainder_time1), (44 bytes).
    Removing patch.o(i.rflib_vesion), (18 bytes).
    Removing patch.o(.constdata), (12 bytes).
    Removing patch.o(.constdata), (9 bytes).
    Removing rf_phy_driver.o(.rev16_text), (4 bytes).
    Removing rf_phy_driver.o(.revsh_text), (4 bytes).
    Removing rf_phy_driver.o(i.DTM_UART_IRQHandler), (80 bytes).
    Removing rf_phy_driver.o(i.NVIC_DisableIRQ), (24 bytes).
    Removing rf_phy_driver.o(i.gen_pn_prbs9), (116 bytes).
    Removing rf_phy_driver.o(i.rf_phy_direct_test), (864 bytes).
    Removing rf_phy_driver.o(i.rf_phy_dtm_ble_pkt_gen), (132 bytes).
    Removing rf_phy_driver.o(i.rf_phy_dtm_cmd_parse), (836 bytes).
    Removing rf_phy_driver.o(i.rf_phy_dtm_evt_send), (236 bytes).
    Removing rf_phy_driver.o(i.rf_phy_dtm_ext_acc_code_set), (12 bytes).
    Removing rf_phy_driver.o(i.rf_phy_dtm_ext_rx_demod_burst), (368 bytes).
    Removing rf_phy_driver.o(i.rf_phy_dtm_ext_tx_mod_burst), (196 bytes).
    Removing rf_phy_driver.o(i.rf_phy_dtm_ext_tx_modulation), (96 bytes).
    Removing rf_phy_driver.o(i.rf_phy_dtm_ext_tx_singleTone), (84 bytes).
    Removing rf_phy_driver.o(i.rf_phy_dtm_init), (52 bytes).
    Removing rf_phy_driver.o(i.rf_phy_dtm_stop), (40 bytes).
    Removing rf_phy_driver.o(i.rf_phy_dtm_trigged), (824 bytes).
    Removing rf_phy_driver.o(i.rf_phy_dtm_zigbee_pkt_gen), (120 bytes).
    Removing rf_phy_driver.o(i.rf_phy_get_pktFoot), (48 bytes).
    Removing rf_phy_driver.o(i.rf_phy_get_pktFoot_fromPkt), (38 bytes).
    Removing rf_phy_driver.o(i.rf_tpCal_cfg), (56 bytes).
    Removing rf_phy_driver.o(i.rf_tpCal_cfg_avg), (192 bytes).
    Removing rf_phy_driver.o(.bss), (32 bytes).
    Removing phy_sec_ext.o(.rev16_text), (4 bytes).
    Removing phy_sec_ext.o(.revsh_text), (4 bytes).
    Removing phy_sec_ext.o(i.PHY_Varify_Platform), (40 bytes).
    Removing phy_sec_ext.o(i.verify_mic), (32 bytes).
    Removing phy_sec_ext.o(.constdata), (16 bytes).
    Removing phy_sec_ext.o(.data), (1 bytes).
    Removing phy_sec_ext.o(.data), (1 bytes).
    Removing phy_sec_ext.o(.data), (1 bytes).
    Removing aes.o(.rev16_text), (4 bytes).
    Removing aes.o(.revsh_text), (4 bytes).
    Removing aes.o(i.AddRoundKey), (48 bytes).
    Removing aes.o(i.FFmul), (88 bytes).
    Removing aes.o(i.KeyExpansion), (700 bytes).
    Removing aes.o(i.MixColumns), (436 bytes).
    Removing aes.o(i.ShiftRows), (104 bytes).
    Removing aes.o(i.SubBytes), (68 bytes).
    Removing aes.o(i.affTrans), (252 bytes).
    Removing aes.o(i.flash_check_parition), (36 bytes).
    Removing aes.o(i.flash_load_parition), (36 bytes).
    Removing aes.o(i.getBit), (28 bytes).
    Removing aes.o(i.getByte), (28 bytes).
    Removing aes.o(i.is_crypto_app), (16 bytes).
    Removing aes.o(i.printfStats), (2 bytes).
    Removing aes.o(i.xor128bit), (24 bytes).
    Removing aes.o(i.xtime), (230 bytes).
    Removing aes.o(.constdata), (32 bytes).
    Removing aes.o(.data), (512 bytes).
    Removing fdiv.o(.text), (124 bytes).
    Removing ddiv.o(.text), (240 bytes).
    Removing dscalb.o(.text), (44 bytes).
    Removing fflti.o(.text), (22 bytes).
    Removing dflti.o(.text), (40 bytes).
    Removing adc.o(i.__ARM_common_switch8), (26 bytes).
    Removing patch.o(i.__psr), (6 bytes).

186 unused section(s) (total 26265 bytes) removed from the image.

==============================================================================

Adding Veneers to the image

    Adding TT veneer (12 bytes, Long) for call to 'enableSleep' from patch.o(_section_xip_code_).
    Adding TT veneer (12 bytes, Long) for call to 'setSleepMode' from patch.o(_section_xip_code_).
    Adding TT veneer (12 bytes, Long) for call to 'WaitRTCCount' from patch.o(_section_xip_code_).
    Adding TT veneer (12 bytes, Long) for call to 'LL_ENC_AES128_Encrypt' from patch.o(_section_xip_code_).
    Adding TT veneer (12 bytes, Long) for call to 'osal_memcpy' from patch.o(_section_xip_code_).
    Adding TT veneer (12 bytes, Long) for call to 'read_current_fine_time' from patch.o(_section_xip_code_).
    Adding TT veneer (12 bytes, Long) for call to 'LL_ENC_AES128_Encrypt0' from patch.o(i.LL_ENC_AES128_Encrypt1).
    Adding TT veneer (12 bytes, Long) for call to 'LL_ENC_LoadKey' from patch.o(i.LL_ENC_Decrypt1).
    Adding TT veneer (12 bytes, Long) for call to 'LL_ENC_GenerateNonce' from patch.o(i.LL_ENC_Decrypt1).
    Adding TT veneer (12 bytes, Long) for call to '__aeabi_uread4' from patch.o(i.LL_ENC_Decrypt1).
    Adding TT veneer (12 bytes, Long) for call to 'll_debug_output' from patch.o(i.LL_IRQHandler1).
    Adding TT veneer (12 bytes, Long) for call to 'll_hw_get_irq_status' from patch.o(i.LL_IRQHandler1).
    Adding TT veneer (12 bytes, Long) for call to 'll_hw_get_tr_mode' from patch.o(i.LL_IRQHandler1).
    Adding TT veneer (12 bytes, Long) for call to 'll_hw_clr_irq' from patch.o(i.LL_IRQHandler1).
    Adding TT veneer (12 bytes, Long) for call to 'll_processExtAdvIRQ' from patch.o(i.LL_IRQHandler1).
    Adding TT veneer (12 bytes, Long) for call to 'll_processExtScanIRQ' from patch.o(i.LL_IRQHandler1).
    Adding TT veneer (12 bytes, Long) for call to 'll_processExtInitIRQ' from patch.o(i.LL_IRQHandler1).
    Adding TT veneer (12 bytes, Long) for call to 'll_processPrdAdvIRQ' from patch.o(i.LL_IRQHandler1).
    Adding TT veneer (12 bytes, Long) for call to 'll_processPrdScanIRQ' from patch.o(i.LL_IRQHandler1).
    Adding TT veneer (12 bytes, Long) for call to 'll_processBasicIRQ' from patch.o(i.LL_IRQHandler1).
    Adding TT veneer (12 bytes, Long) for call to 'll_schedule_next_event' from patch.o(i.LL_IRQHandler1).
    Adding TT veneer (12 bytes, Long) for call to 'llSecAdvAllow' from patch.o(i.LL_IRQHandler1).
    Adding TT veneer (12 bytes, Long) for call to 'llSetupSecAdvEvt' from patch.o(i.LL_IRQHandler1).
    Adding TT veneer (12 bytes, Long) for call to 'll_hw_set_rx_timeout' from patch.o(i.LL_IRQHandler1).
    Adding TT veneer (12 bytes, Long) for call to 'llSetupSecScan' from patch.o(i.LL_IRQHandler1).
    Adding TT veneer (12 bytes, Long) for call to 'llSetupSecInit' from patch.o(i.LL_IRQHandler1).
    Adding TT veneer (12 bytes, Long) for call to 'LL_SetDataLengh0' from patch.o(i.LL_SetDataLengh1).
    Adding TT veneer (12 bytes, Long) for call to '__aeabi_uidivmod' from clock.o(i.WaitMs).
    Adding TT veneer (12 bytes, Long) for call to 'efuse_read' from phy_sec_ext.o(i._efuse_chip_version_check).
    Adding TT veneer (12 bytes, Long) for call to 'log_printf' from jump_table.o(i._hard_fault).
    Adding TT veneer (12 bytes, Long) for call to 'osal_msg_receive' from adc_demo.o(i.adc_ProcessEvent).
    Adding TT veneer (12 bytes, Long) for call to 'osal_msg_deallocate' from adc_demo.o(i.adc_ProcessEvent).
    Adding TT veneer (12 bytes, Long) for call to '__ARM_common_switch8' from adc.o(i.adc_init_r).
    Adding TT veneer (12 bytes, Long) for call to 'osal_init_system' from adc_main.o(i.app_main).
    Adding TT veneer (12 bytes, Long) for call to 'osal_pwrmgr_device' from adc_main.o(i.app_main).
    Adding TT veneer (12 bytes, Long) for call to 'osal_start_system' from adc_main.o(i.app_main).
    Adding TT veneer (12 bytes, Long) for call to '__aeabi_memclr4' from adc.o(i.clear_adcc_cfg).
    Adding TT veneer (12 bytes, Long) for call to 'osal_memcmp' from phy_sec_ext.o(i.finidv).
    Adding TT veneer (12 bytes, Long) for call to 'drv_disable_irq' from flash.o(i.hal_cache_tag_flush).
    Adding TT veneer (12 bytes, Long) for call to 'drv_enable_irq' from flash.o(i.hal_cache_tag_flush).
    Adding TT veneer (12 bytes, Long) for call to '__aeabi_memcpy4' from main.o(i.hal_low_power_io_init).
    Adding TT veneer (12 bytes, Long) for call to 'disableSleep' from pwrmgr.o(i.hal_pwrmgr_init).
    Adding TT veneer (12 bytes, Long) for call to 'osal_mem_set_heap' from main.o(i.hal_rfphy_init).
    Adding TT veneer (12 bytes, Long) for call to 'LL_InitConnectContext' from main.o(i.hal_rfphy_init).
    Adding TT veneer (12 bytes, Long) for call to 'spif_config' from flash.o(i.hw_spif_cache_config).
    Adding TT veneer (12 bytes, Long) for call to 'llProcessTxData0' from patch.o(i.llProcessTxData1).
    Adding TT veneer (12 bytes, Long) for call to 'll_hw_write_tfifo' from patch.o(i.ll_generateTxBuffer1).
    Adding TT veneer (12 bytes, Long) for call to 'll_hw_get_tfifo_wrptr' from patch.o(i.ll_generateTxBuffer1).
    Adding TT veneer (12 bytes, Long) for call to 'getTxBufferSize' from patch.o(i.ll_generateTxBuffer1).
    Adding TT veneer (12 bytes, Long) for call to 'get_tx_read_ptr' from patch.o(i.ll_generateTxBuffer1).
    Adding TT veneer (12 bytes, Long) for call to 'update_tx_read_ptr' from patch.o(i.ll_generateTxBuffer1).
    Adding TT veneer (12 bytes, Long) for call to 'llEnqueueCtrlPkt' from patch.o(i.ll_generateTxBuffer1).
    Adding TT veneer (12 bytes, Long) for call to 'set_max_length' from patch.o(i.ll_hw_go1).
    Adding TT veneer (12 bytes, Long) for call to 'drv_irq_init' from main.o(i.main).
    Adding TT veneer (12 bytes, Long) for call to 'clk_init' from main.o(i.main).
    Adding TT veneer (12 bytes, Long) for call to 'osal_mem_alloc' from osal_adc.o(i.osalInitTasks).
    Adding TT veneer (12 bytes, Long) for call to 'osal_memset' from osal_adc.o(i.osalInitTasks).
    Adding TT veneer (12 bytes, Long) for call to 'LL_Init' from osal_adc.o(i.osalInitTasks).
    Adding TT veneer (12 bytes, Long) for call to 'll_hw_set_crc_fmt' from rf_phy_driver.o(i.rf_phy_bb_cfg).
    Adding TT veneer (12 bytes, Long) for call to 'll_hw_tx2rx_timing_config' from rf_phy_driver.o(i.rf_phy_ini).
    Adding TT veneer (12 bytes, Long) for call to '__aeabi_memcpy' from uart.o(i.txmit_buf_use_tx_buf).
    Adding TT veneer (12 bytes, Long) for call to 'clk_get_pclk' from uart.o(i.uart_hw_init).
    Adding TT veneer (12 bytes, Long) for call to 'rtc_get_counter' from patch.o(i.wakeup_init1).
    Adding TT veneer (12 bytes, Long) for call to 'set_timer' from patch.o(i.wakeup_init1).
    Adding TT veneer (12 bytes, Long) for call to 'll_hw_set_empty_head' from patch.o(i.wakeup_init1).
    Adding TT veneer (12 bytes, Long) for call to 'll_hw_set_rx_timeout_1st' from patch.o(i.wakeup_init1).
    Adding TT veneer (12 bytes, Long) for call to 'll_hw_set_loop_timeout' from patch.o(i.wakeup_init1).
    Adding TT veneer (12 bytes, Long) for call to 'll_hw_set_timing' from patch.o(i.wakeup_init1).
    Adding TT veneer (12 bytes, Long) for call to 'll_hw_ign_rfifo' from patch.o(i.wakeup_init1).

69 Veneer(s) (total 828 bytes) added to the image.

==============================================================================

Image Symbol Table

    Local Symbols

    Symbol Name                              Value     Ov Type        Size  Object(Section)

    ../clib/../cmprslib/zerorunl2.c          0x00000000   Number         0  __dczerorl2.o ABSOLUTE
    ../clib/microlib/init/entry.s            0x00000000   Number         0  entry7a.o ABSOLUTE
    ../clib/microlib/init/entry.s            0x00000000   Number         0  entry10a.o ABSOLUTE
    ../clib/microlib/init/entry.s            0x00000000   Number         0  entry8b.o ABSOLUTE
    ../clib/microlib/init/entry.s            0x00000000   Number         0  entry11a.o ABSOLUTE
    ../clib/microlib/init/entry.s            0x00000000   Number         0  entry2.o ABSOLUTE
    ../clib/microlib/init/entry.s            0x00000000   Number         0  entry8a.o ABSOLUTE
    ../clib/microlib/init/entry.s            0x00000000   Number         0  entry7b.o ABSOLUTE
    ../clib/microlib/init/entry.s            0x00000000   Number         0  entry10b.o ABSOLUTE
    ../clib/microlib/init/entry.s            0x00000000   Number         0  entry11b.o ABSOLUTE
    ../clib/microlib/init/entry.s            0x00000000   Number         0  entry.o ABSOLUTE
    ../clib/microlib/init/entry.s            0x00000000   Number         0  entry5.o ABSOLUTE
    ../clib/microlib/init/entry.s            0x00000000   Number         0  entry9b.o ABSOLUTE
    ../clib/microlib/init/entry.s            0x00000000   Number         0  entry9a.o ABSOLUTE
    ../clib/microlib/longlong.c              0x00000000   Number         0  llushr.o ABSOLUTE
    ../clib/microlib/longlong.c              0x00000000   Number         0  llshl.o ABSOLUTE
    ../clib/microlib/stubs.s                 0x00000000   Number         0  iusefp.o ABSOLUTE
    ../fplib/microlib/d2f.c                  0x00000000   Number         0  d2f.o ABSOLUTE
    ../fplib/microlib/f2d.c                  0x00000000   Number         0  f2d.o ABSOLUTE
    ../fplib/microlib/fpadd.c                0x00000000   Number         0  fadd.o ABSOLUTE
    ../fplib/microlib/fpdiv.c                0x00000000   Number         0  fdiv.o ABSOLUTE
    ../fplib/microlib/fpdiv.c                0x00000000   Number         0  ddiv.o ABSOLUTE
    ../fplib/microlib/fpepilogue.c           0x00000000   Number         0  fepilogue.o ABSOLUTE
    ../fplib/microlib/fpepilogue.c           0x00000000   Number         0  depilogue.o ABSOLUTE
    ../fplib/microlib/fpfix.c                0x00000000   Number         0  ffixi.o ABSOLUTE
    ../fplib/microlib/fpflt.c                0x00000000   Number         0  fflti.o ABSOLUTE
    ../fplib/microlib/fpflt.c                0x00000000   Number         0  ffltui.o ABSOLUTE
    ../fplib/microlib/fpflt.c                0x00000000   Number         0  dflti.o ABSOLUTE
    ../fplib/microlib/fpmul.c                0x00000000   Number         0  dmul.o ABSOLUTE
    ../fplib/microlib/fpmul.c                0x00000000   Number         0  fmul.o ABSOLUTE
    ../fplib/microlib/fpscalb.c              0x00000000   Number         0  fscalb.o ABSOLUTE
    ../fplib/microlib/fpscalb.c              0x00000000   Number         0  dscalb.o ABSOLUTE
    ..\..\..\components\driver\clock\clock.c 0x00000000   Number         0  clock.o ABSOLUTE
    ..\..\..\components\driver\flash\flash.c 0x00000000   Number         0  flash.o ABSOLUTE
    ..\..\..\components\driver\gpio\gpio.c   0x00000000   Number         0  gpio.o ABSOLUTE
    ..\..\..\components\driver\log\my_printf.c 0x00000000   Number         0  my_printf.o ABSOLUTE
    ..\..\..\components\driver\pwrmgr\pwrmgr.c 0x00000000   Number         0  pwrmgr.o ABSOLUTE
    ..\..\..\components\driver\uart\uart.c   0x00000000   Number         0  uart.o ABSOLUTE
    ..\..\..\misc\jump_table.c               0x00000000   Number         0  jump_table.o ABSOLUTE
    ..\..\components\ble_src\controller\rf_phy_driver.c 0x00000000   Number         0  rf_phy_driver.o ABSOLUTE
    ..\\..\\..\\components\\driver\\clock\\clock.c 0x00000000   Number         0  clock.o ABSOLUTE
    ..\\..\\..\\components\\driver\\flash\\flash.c 0x00000000   Number         0  flash.o ABSOLUTE
    ..\\..\\..\\components\\driver\\gpio\\gpio.c 0x00000000   Number         0  gpio.o ABSOLUTE
    ..\\..\\..\\components\\driver\\log\\my_printf.c 0x00000000   Number         0  my_printf.o ABSOLUTE
    ..\\..\\..\\components\\driver\\pwrmgr\\pwrmgr.c 0x00000000   Number         0  pwrmgr.o ABSOLUTE
    ..\\..\\..\\components\\driver\\uart\\uart.c 0x00000000   Number         0  uart.o ABSOLUTE
    ..\\..\\..\\misc\\jump_table.c           0x00000000   Number         0  jump_table.o ABSOLUTE
    ..\\..\\components\\ble_src\\controller\\rf_phy_driver.c 0x00000000   Number         0  rf_phy_driver.o ABSOLUTE
    RTE\Device\ARMCM0\startup_ARMCM0.s       0x00000000   Number         0  startup_armcm0.o ABSOLUTE
    RTE\Device\ARMCM0\system_ARMCM0.c        0x00000000   Number         0  system_armcm0.o ABSOLUTE
    RTE\\Device\\ARMCM0\\system_ARMCM0.c     0x00000000   Number         0  system_armcm0.o ABSOLUTE
    dc.s                                     0x00000000   Number         0  dc.o ABSOLUTE
    handlers.s                               0x00000000   Number         0  handlers.o ABSOLUTE
    init.s                                   0x00000000   Number         0  init.o ABSOLUTE
    source\OSAL_adc.c                        0x00000000   Number         0  osal_adc.o ABSOLUTE
    source\\OSAL_adc.c                       0x00000000   Number         0  osal_adc.o ABSOLUTE
    source\\adc.c                            0x00000000   Number         0  adc.o ABSOLUTE
    source\\adc_Main.c                       0x00000000   Number         0  adc_main.o ABSOLUTE
    source\\adc_demo.c                       0x00000000   Number         0  adc_demo.o ABSOLUTE
    source\\aes.c                            0x00000000   Number         0  aes.o ABSOLUTE
    source\\main.c                           0x00000000   Number         0  main.o ABSOLUTE
    source\\patch.c                          0x00000000   Number         0  patch.o ABSOLUTE
    source\\phy_sec_ext.c                    0x00000000   Number         0  phy_sec_ext.o ABSOLUTE
    source\\pwm.c                            0x00000000   Number         0  pwm.o ABSOLUTE
    source\\timer.c                          0x00000000   Number         0  timer.o ABSOLUTE
    source\adc.c                             0x00000000   Number         0  adc.o ABSOLUTE
    source\adc_Main.c                        0x00000000   Number         0  adc_main.o ABSOLUTE
    source\adc_demo.c                        0x00000000   Number         0  adc_demo.o ABSOLUTE
    source\aes.c                             0x00000000   Number         0  aes.o ABSOLUTE
    source\main.c                            0x00000000   Number         0  main.o ABSOLUTE
    source\patch.c                           0x00000000   Number         0  patch.o ABSOLUTE
    source\phy_sec_ext.c                     0x00000000   Number         0  phy_sec_ext.o ABSOLUTE
    source\pwm.c                             0x00000000   Number         0  pwm.o ABSOLUTE
    source\timer.c                           0x00000000   Number         0  timer.o ABSOLUTE
    jump_table_mem_area                      0x1fff0000   Section     1024  jump_table.o(jump_table_mem_area)
    global_config_area                       0x1fff0400   Section     1024  jump_table.o(global_config_area)
    RESET                                    0x1fff1838   Section      192  startup_armcm0.o(RESET)
    .ARM.Collect$$$$00000000                 0x1fff18f8   Section        0  entry.o(.ARM.Collect$$$$00000000)
    .ARM.Collect$$$$00000001                 0x1fff18f8   Section        4  entry2.o(.ARM.Collect$$$$00000001)
    .ARM.Collect$$$$00000004                 0x1fff18fc   Section        4  entry5.o(.ARM.Collect$$$$00000004)
    .ARM.Collect$$$$00000008                 0x1fff1900   Section        0  entry7b.o(.ARM.Collect$$$$00000008)
    .ARM.Collect$$$$0000000A                 0x1fff1900   Section        0  entry8b.o(.ARM.Collect$$$$0000000A)
    .ARM.Collect$$$$0000000B                 0x1fff1900   Section        8  entry9a.o(.ARM.Collect$$$$0000000B)
    .ARM.Collect$$$$0000000D                 0x1fff1908   Section        0  entry10a.o(.ARM.Collect$$$$0000000D)
    .ARM.Collect$$$$0000000F                 0x1fff1908   Section        0  entry11a.o(.ARM.Collect$$$$0000000F)
    .ARM.Collect$$$$00002712                 0x1fff1908   Section        4  entry2.o(.ARM.Collect$$$$00002712)
    __lit__00000000                          0x1fff1908   Data           4  entry2.o(.ARM.Collect$$$$00002712)
    .emb_text                                0x1fff190c   Section       48  jump_table.o(.emb_text)
    .text                                    0x1fff193c   Section       28  startup_armcm0.o(.text)
    .text                                    0x1fff1958   Section        0  fadd.o(.text)
    .text                                    0x1fff1a0a   Section        0  fmul.o(.text)
    .text                                    0x1fff1a84   Section        0  fscalb.o(.text)
    .text                                    0x1fff1a9c   Section        0  dmul.o(.text)
    .text                                    0x1fff1b6c   Section        0  ffltui.o(.text)
    .text                                    0x1fff1b7a   Section        0  ffixi.o(.text)
    .text                                    0x1fff1bac   Section        0  f2d.o(.text)
    .text                                    0x1fff1bd4   Section        0  d2f.o(.text)
    .text                                    0x1fff1c0c   Section        0  fepilogue.o(.text)
    .text                                    0x1fff1c0c   Section        0  iusefp.o(.text)
    .text                                    0x1fff1c8e   Section        0  depilogue.o(.text)
    .text                                    0x1fff1d4c   Section       36  init.o(.text)
    .text                                    0x1fff1d70   Section        0  llshl.o(.text)
    .text                                    0x1fff1d90   Section        0  llushr.o(.text)
    .text                                    0x1fff1db2   Section        0  __dczerorl2.o(.text)
    _section_sram_code_                      0x1fff2144   Section        0  uart.o(_section_sram_code_)
    __tagsym$$used                           0x1fff2145   Number         0  uart.o(_section_sram_code_)
    _section_xip_code_                       0x1fff2188   Section        0  patch.o(_section_xip_code_)
    TRNG_Output                              0x1fff23a7   Thumb Code    72  patch.o(_section_xip_code_)
    i.InsertSort                             0x1fff253c   Section        0  adc_demo.o(i.InsertSort)
    i.LL_ENC_AES128_Encrypt1                 0x1fff2572   Section        0  patch.o(i.LL_ENC_AES128_Encrypt1)
    i.LL_ENC_Decrypt1                        0x1fff258c   Section        0  patch.o(i.LL_ENC_Decrypt1)
    i.LL_ENC_Encrypt1                        0x1fff2704   Section        0  patch.o(i.LL_ENC_Encrypt1)
    i.LL_IRQHandler1                         0x1fff2864   Section        0  patch.o(i.LL_IRQHandler1)
    i.LL_SetDataLengh1                       0x1fff29b0   Section        0  patch.o(i.LL_SetDataLengh1)
    i.NVIC_EnableIRQ                         0x1fff29e0   Section        0  patch.o(i.NVIC_EnableIRQ)
    NVIC_EnableIRQ                           0x1fff29e1   Thumb Code    18  patch.o(i.NVIC_EnableIRQ)
    i.NVIC_SetPriority                       0x1fff29f8   Section        0  main.o(i.NVIC_SetPriority)
    NVIC_SetPriority                         0x1fff29f9   Thumb Code    60  main.o(i.NVIC_SetPriority)
    i.NVIC_SetPriority                       0x1fff2a3c   Section        0  timer.o(i.NVIC_SetPriority)
    NVIC_SetPriority                         0x1fff2a3d   Thumb Code    60  timer.o(i.NVIC_SetPriority)
    i.NVIC_SetPriority                       0x1fff2a80   Section        0  gpio.o(i.NVIC_SetPriority)
    NVIC_SetPriority                         0x1fff2a81   Thumb Code    60  gpio.o(i.NVIC_SetPriority)
    i.NVIC_SetPriority                       0x1fff2ac4   Section        0  pwrmgr.o(i.NVIC_SetPriority)
    NVIC_SetPriority                         0x1fff2ac5   Thumb Code    60  pwrmgr.o(i.NVIC_SetPriority)
    i.SystemInit                             0x1fff2b08   Section        0  system_armcm0.o(i.SystemInit)
    i.WaitMs                                 0x1fff2b18   Section        0  clock.o(i.WaitMs)
    i.WaitUs                                 0x1fff2b2c   Section        0  clock.o(i.WaitUs)
    i.__ARM_clz                              0x1fff2b58   Section        0  depilogue.o(i.__ARM_clz)
    i.__scatterload_copy                     0x1fff2b86   Section       14  handlers.o(i.__scatterload_copy)
    i.__scatterload_null                     0x1fff2b94   Section        2  handlers.o(i.__scatterload_null)
    i.__scatterload_zeroinit                 0x1fff2b96   Section       14  handlers.o(i.__scatterload_zeroinit)
    i._efuse_chip_version_check              0x1fff2ba4   Section        0  phy_sec_ext.o(i._efuse_chip_version_check)
    i._hard_fault                            0x1fff2bc4   Section        0  jump_table.o(i._hard_fault)
    i._rom_sec_boot_init                     0x1fff2dac   Section        0  phy_sec_ext.o(i._rom_sec_boot_init)
    i._uart_putc                             0x1fff2dc4   Section        0  my_printf.o(i._uart_putc)
    _uart_putc                               0x1fff2dc5   Thumb Code    14  my_printf.o(i._uart_putc)
    i.adcMeasureCh                           0x1fff2dd4   Section        0  adc_demo.o(i.adcMeasureCh)
    i.adcMeasureTask                         0x1fff2e54   Section        0  adc_demo.o(i.adcMeasureTask)
    adcMeasureTask                           0x1fff2e55   Thumb Code    54  adc_demo.o(i.adcMeasureTask)
    i.adc_Init                               0x1fff2ea0   Section        0  adc_demo.o(i.adc_Init)
    i.adc_ProcessEvent                       0x1fff2f14   Section        0  adc_demo.o(i.adc_ProcessEvent)
    i.adc_init_r                             0x1fff2f50   Section        0  adc.o(i.adc_init_r)
    i.adc_stop_r                             0x1fff30fc   Section        0  adc.o(i.adc_stop_r)
    i.adc_wakeup_hdl                         0x1fff3108   Section        0  adc.o(i.adc_wakeup_hdl)
    adc_wakeup_hdl                           0x1fff3109   Thumb Code    20  adc.o(i.adc_wakeup_hdl)
    i.app_main                               0x1fff3120   Section        0  adc_main.o(i.app_main)
    i.check_16MXtal_by_rcTracking            0x1fff3134   Section        0  patch.o(i.check_16MXtal_by_rcTracking)
    check_16MXtal_by_rcTracking              0x1fff3135   Thumb Code   188  patch.o(i.check_16MXtal_by_rcTracking)
    i.check_96MXtal_by_rcTracking            0x1fff3208   Section        0  patch.o(i.check_96MXtal_by_rcTracking)
    check_96MXtal_by_rcTracking              0x1fff3209   Thumb Code   242  patch.o(i.check_96MXtal_by_rcTracking)
    i.clear_adcc_cfg                         0x1fff3318   Section        0  adc.o(i.clear_adcc_cfg)
    clear_adcc_cfg                           0x1fff3319   Thumb Code    12  adc.o(i.clear_adcc_cfg)
    i.dbg_printf                             0x1fff3328   Section        0  my_printf.o(i.dbg_printf)
    i.dbg_printf_init                        0x1fff3344   Section        0  my_printf.o(i.dbg_printf_init)
    i.finidv                                 0x1fff3358   Section        0  phy_sec_ext.o(i.finidv)
    i.hal_ADC_IRQHandler                     0x1fff33e4   Section        0  adc.o(i.hal_ADC_IRQHandler)
    __tagsym$$used                           0x1fff33e5   Number         0  adc.o(i.hal_ADC_IRQHandler)
    i.hal_GPIO_IRQHandler                    0x1fff34a8   Section        0  gpio.o(i.hal_GPIO_IRQHandler)
    __tagsym$$used                           0x1fff34a9   Number         0  gpio.o(i.hal_GPIO_IRQHandler)
    i.hal_TIMER5_IRQHandler                  0x1fff34c0   Section        0  timer.o(i.hal_TIMER5_IRQHandler)
    __tagsym$$used                           0x1fff34c1   Number         0  timer.o(i.hal_TIMER5_IRQHandler)
    i.hal_TIMER6_IRQHandler                  0x1fff34e4   Section        0  timer.o(i.hal_TIMER6_IRQHandler)
    __tagsym$$used                           0x1fff34e5   Number         0  timer.o(i.hal_TIMER6_IRQHandler)
    i.hal_UART1_IRQHandler                   0x1fff3508   Section        0  uart.o(i.hal_UART1_IRQHandler)
    __tagsym$$used                           0x1fff3509   Number         0  uart.o(i.hal_UART1_IRQHandler)
    i.hal_adc_init                           0x1fff354c   Section        0  adc.o(i.hal_adc_init)
    i.hal_adc_stop                           0x1fff356c   Section        0  adc.o(i.hal_adc_stop)
    i.hal_cache_tag_flush                    0x1fff3618   Section        0  flash.o(i.hal_cache_tag_flush)
    hal_cache_tag_flush                      0x1fff3619   Thumb Code    66  flash.o(i.hal_cache_tag_flush)
    i.hal_clk_gate_disable                   0x1fff3660   Section        0  clock.o(i.hal_clk_gate_disable)
    i.hal_clk_gate_enable                    0x1fff3694   Section        0  clock.o(i.hal_clk_gate_enable)
    i.hal_clk_reset                          0x1fff36c8   Section        0  clock.o(i.hal_clk_reset)
    i.hal_flash_read                         0x1fff3744   Section        0  flash.o(i.hal_flash_read)
    i.hal_gpio_cfg_analog_io                 0x1fff37a0   Section        0  gpio.o(i.hal_gpio_cfg_analog_io)
    i.hal_gpio_fmux                          0x1fff37d0   Section        0  gpio.o(i.hal_gpio_fmux)
    i.hal_gpio_fmux_set                      0x1fff37ec   Section        0  gpio.o(i.hal_gpio_fmux_set)
    i.hal_gpio_init                          0x1fff3824   Section        0  gpio.o(i.hal_gpio_init)
    i.hal_gpio_interrupt_enable              0x1fff3884   Section        0  gpio.o(i.hal_gpio_interrupt_enable)
    hal_gpio_interrupt_enable                0x1fff3885   Thumb Code    58  gpio.o(i.hal_gpio_interrupt_enable)
    i.hal_gpio_pin2pin3_control              0x1fff38c4   Section        0  gpio.o(i.hal_gpio_pin2pin3_control)
    i.hal_gpio_pin_init                      0x1fff38e0   Section        0  gpio.o(i.hal_gpio_pin_init)
    i.hal_gpio_pull_set                      0x1fff3940   Section        0  gpio.o(i.hal_gpio_pull_set)
    i.hal_gpio_read                          0x1fff3984   Section        0  gpio.o(i.hal_gpio_read)
    i.hal_gpio_retention_enable              0x1fff39a8   Section        0  gpio.o(i.hal_gpio_retention_enable)
    hal_gpio_retention_enable                0x1fff39a9   Thumb Code    84  gpio.o(i.hal_gpio_retention_enable)
    i.hal_gpio_sleep_handler                 0x1fff3a04   Section        0  gpio.o(i.hal_gpio_sleep_handler)
    hal_gpio_sleep_handler                   0x1fff3a05   Thumb Code    66  gpio.o(i.hal_gpio_sleep_handler)
    i.hal_gpio_wakeup_control                0x1fff3a4c   Section        0  gpio.o(i.hal_gpio_wakeup_control)
    hal_gpio_wakeup_control                  0x1fff3a4d   Thumb Code    58  gpio.o(i.hal_gpio_wakeup_control)
    i.hal_gpio_wakeup_handler                0x1fff3a90   Section        0  gpio.o(i.hal_gpio_wakeup_handler)
    hal_gpio_wakeup_handler                  0x1fff3a91   Thumb Code   134  gpio.o(i.hal_gpio_wakeup_handler)
    i.hal_gpio_wakeup_set                    0x1fff3b20   Section        0  gpio.o(i.hal_gpio_wakeup_set)
    i.hal_gpio_write                         0x1fff3b98   Section        0  gpio.o(i.hal_gpio_write)
    i.hal_gpioin_enable                      0x1fff3bbc   Section        0  gpio.o(i.hal_gpioin_enable)
    i.hal_gpioin_event                       0x1fff3c20   Section        0  gpio.o(i.hal_gpioin_event)
    hal_gpioin_event                         0x1fff3c21   Thumb Code   100  gpio.o(i.hal_gpioin_event)
    i.hal_gpioin_event_pin                   0x1fff3c88   Section        0  gpio.o(i.hal_gpioin_event_pin)
    hal_gpioin_event_pin                     0x1fff3c89   Thumb Code    32  gpio.o(i.hal_gpioin_event_pin)
    i.hal_low_power_io_init                  0x1fff3cac   Section        0  main.o(i.hal_low_power_io_init)
    hal_low_power_io_init                    0x1fff3cad   Thumb Code    98  main.o(i.hal_low_power_io_init)
    i.hal_pwm_init                           0x1fff3d18   Section        0  pwm.o(i.hal_pwm_init)
    i.hal_pwm_open_channel                   0x1fff3d7c   Section        0  pwm.o(i.hal_pwm_open_channel)
    i.hal_pwm_set_count_val                  0x1fff3dac   Section        0  pwm.o(i.hal_pwm_set_count_val)
    i.hal_pwm_start                          0x1fff3de4   Section        0  pwm.o(i.hal_pwm_start)
    i.hal_pwm_stop                           0x1fff3e14   Section        0  pwm.o(i.hal_pwm_stop)
    i.hal_pwrmgr_LowCurrentLdo_enable        0x1fff3e4c   Section        0  pwrmgr.o(i.hal_pwrmgr_LowCurrentLdo_enable)
    i.hal_pwrmgr_RAM_retention               0x1fff3e78   Section        0  pwrmgr.o(i.hal_pwrmgr_RAM_retention)
    i.hal_pwrmgr_RAM_retention_set           0x1fff3e90   Section        0  pwrmgr.o(i.hal_pwrmgr_RAM_retention_set)
    i.hal_pwrmgr_init                        0x1fff3eb0   Section        0  pwrmgr.o(i.hal_pwrmgr_init)
    i.hal_pwrmgr_lock                        0x1fff3ee0   Section        0  pwrmgr.o(i.hal_pwrmgr_lock)
    i.hal_pwrmgr_register                    0x1fff3f38   Section        0  pwrmgr.o(i.hal_pwrmgr_register)
    i.hal_pwrmgr_sleep_process               0x1fff3f74   Section        0  pwrmgr.o(i.hal_pwrmgr_sleep_process)
    __tagsym$$used                           0x1fff3f75   Number         0  pwrmgr.o(i.hal_pwrmgr_sleep_process)
    i.hal_pwrmgr_unlock                      0x1fff3fa4   Section        0  pwrmgr.o(i.hal_pwrmgr_unlock)
    i.hal_pwrmgr_wakeup_process              0x1fff400c   Section        0  pwrmgr.o(i.hal_pwrmgr_wakeup_process)
    __tagsym$$used                           0x1fff400d   Number         0  pwrmgr.o(i.hal_pwrmgr_wakeup_process)
    i.hal_rfphy_init                         0x1fff4080   Section        0  main.o(i.hal_rfphy_init)
    hal_rfphy_init                           0x1fff4081   Thumb Code   106  main.o(i.hal_rfphy_init)
    i.hal_rom_boot_init                      0x1fff4108   Section        0  patch.o(i.hal_rom_boot_init)
    i.hal_rtc_clock_config                   0x1fff4110   Section        0  clock.o(i.hal_rtc_clock_config)
    i.hal_spif_cache_init                    0x1fff4194   Section        0  flash.o(i.hal_spif_cache_init)
    i.hal_timer_init                         0x1fff41b8   Section        0  timer.o(i.hal_timer_init)
    i.hal_timer_set                          0x1fff41e4   Section        0  timer.o(i.hal_timer_set)
    i.hal_timer_set_loadtimer                0x1fff4250   Section        0  timer.o(i.hal_timer_set_loadtimer)
    hal_timer_set_loadtimer                  0x1fff4251   Thumb Code    22  timer.o(i.hal_timer_set_loadtimer)
    i.hal_timer_sleep_handler                0x1fff4268   Section        0  timer.o(i.hal_timer_sleep_handler)
    i.hal_timer_stop                         0x1fff427c   Section        0  timer.o(i.hal_timer_stop)
    i.hal_timer_stop_counter                 0x1fff42c8   Section        0  timer.o(i.hal_timer_stop_counter)
    hal_timer_stop_counter                   0x1fff42c9   Thumb Code    10  timer.o(i.hal_timer_stop_counter)
    i.hal_timer_wakeup_handler               0x1fff42d4   Section        0  timer.o(i.hal_timer_wakeup_handler)
    hal_timer_wakeup_handler                 0x1fff42d5   Thumb Code    14  timer.o(i.hal_timer_wakeup_handler)
    i.hal_uart_init                          0x1fff42e8   Section        0  uart.o(i.hal_uart_init)
    i.hal_uart_send_buff                     0x1fff434c   Section        0  uart.o(i.hal_uart_send_buff)
    i.hw_spif_cache_config                   0x1fff436c   Section        0  flash.o(i.hw_spif_cache_config)
    hw_spif_cache_config                     0x1fff436d   Thumb Code    92  flash.o(i.hw_spif_cache_config)
    i.irq_rx_handler                         0x1fff43dc   Section        0  uart.o(i.irq_rx_handler)
    irq_rx_handler                           0x1fff43dd   Thumb Code    76  uart.o(i.irq_rx_handler)
    i.irq_tx_empty_handler                   0x1fff4434   Section        0  uart.o(i.irq_tx_empty_handler)
    irq_tx_empty_handler                     0x1fff4435   Thumb Code   136  uart.o(i.irq_tx_empty_handler)
    i.l2capPocessFragmentTxData              0x1fff44cc   Section        0  patch.o(i.l2capPocessFragmentTxData)
    i.llProcessTxData1                       0x1fff44ce   Section        0  patch.o(i.llProcessTxData1)
    i.ll_generateTxBuffer1                   0x1fff44dc   Section        0  patch.o(i.ll_generateTxBuffer1)
    i.ll_hw_go1                              0x1fff4688   Section        0  patch.o(i.ll_hw_go1)
    i.ll_processBasicIRQ_SRX                 0x1fff4870   Section        0  patch.o(i.ll_processBasicIRQ_SRX)
    i.ll_processBasicIRQ_secondaryAdvTRX     0x1fff4888   Section        0  patch.o(i.ll_processBasicIRQ_secondaryAdvTRX)
    i.log_vsprintf                           0x1fff48a0   Section        0  my_printf.o(i.log_vsprintf)
    log_vsprintf                             0x1fff48a1   Thumb Code   608  my_printf.o(i.log_vsprintf)
    i.main                                   0x1fff4b08   Section        0  main.o(i.main)
    i.my_hal_adc_value_cal                   0x1fff4c2c   Section        0  adc_demo.o(i.my_hal_adc_value_cal)
    i.number                                 0x1fff4c7c   Section        0  my_printf.o(i.number)
    number                                   0x1fff4c7d   Thumb Code   356  my_printf.o(i.number)
    i.osalInitTasks                          0x1fff4de4   Section        0  osal_adc.o(i.osalInitTasks)
    i.rc32k_calibration                      0x1fff4e10   Section        0  rf_phy_driver.o(i.rc32k_calibration)
    i.rf_calibrate1                          0x1fff4e78   Section        0  rf_phy_driver.o(i.rf_calibrate1)
    i.rf_phy_ana_cfg                         0x1fff4ea0   Section        0  rf_phy_driver.o(i.rf_phy_ana_cfg)
    i.rf_phy_bb_cfg                          0x1fff4fb8   Section        0  rf_phy_driver.o(i.rf_phy_bb_cfg)
    i.rf_phy_change_cfg0                     0x1fff5158   Section        0  rf_phy_driver.o(i.rf_phy_change_cfg0)
    i.rf_phy_ini                             0x1fff51ec   Section        0  rf_phy_driver.o(i.rf_phy_ini)
    i.rf_phy_set_txPower                     0x1fff5228   Section        0  rf_phy_driver.o(i.rf_phy_set_txPower)
    i.rf_rxDcoc_cfg                          0x1fff529c   Section        0  rf_phy_driver.o(i.rf_rxDcoc_cfg)
    i.rf_tpCal_gen_cap_arrary                0x1fff53bc   Section        0  rf_phy_driver.o(i.rf_tpCal_gen_cap_arrary)
    i.rf_tp_cal                              0x1fff5408   Section        0  rf_phy_driver.o(i.rf_tp_cal)
    i.skip_atoi                              0x1fff5520   Section        0  my_printf.o(i.skip_atoi)
    skip_atoi                                0x1fff5521   Thumb Code    32  my_printf.o(i.skip_atoi)
    i.time_cb                                0x1fff5540   Section        0  adc_demo.o(i.time_cb)
    i.txmit_buf_polling                      0x1fff5564   Section        0  uart.o(i.txmit_buf_polling)
    txmit_buf_polling                        0x1fff5565   Thumb Code    96  uart.o(i.txmit_buf_polling)
    i.txmit_buf_use_tx_buf                   0x1fff55d0   Section        0  uart.o(i.txmit_buf_use_tx_buf)
    txmit_buf_use_tx_buf                     0x1fff55d1   Thumb Code   176  uart.o(i.txmit_buf_use_tx_buf)
    i.uart_hw_deinit                         0x1fff568c   Section        0  uart.o(i.uart_hw_deinit)
    uart_hw_deinit                           0x1fff568d   Thumb Code    98  uart.o(i.uart_hw_deinit)
    i.uart_hw_init                           0x1fff5704   Section        0  uart.o(i.uart_hw_init)
    uart_hw_init                             0x1fff5705   Thumb Code   304  uart.o(i.uart_hw_init)
    i.uart_wakeup_process_0                  0x1fff5858   Section        0  uart.o(i.uart_wakeup_process_0)
    uart_wakeup_process_0                    0x1fff5859   Thumb Code    10  uart.o(i.uart_wakeup_process_0)
    i.uart_wakeup_process_1                  0x1fff5862   Section        0  uart.o(i.uart_wakeup_process_1)
    uart_wakeup_process_1                    0x1fff5863   Thumb Code    10  uart.o(i.uart_wakeup_process_1)
    i.wakeup_init1                           0x1fff586c   Section        0  patch.o(i.wakeup_init1)
    .constdata                               0x1fff5960   Section       28  main.o(.constdata)
    .constdata                               0x1fff597c   Section       24  adc_demo.o(.constdata)
    .constdata                               0x1fff5994   Section        8  osal_adc.o(.constdata)
    .constdata                               0x1fff599c   Section        1  osal_adc.o(.constdata)
    .constdata                               0x1fff599d   Section      138  gpio.o(.constdata)
    .constdata                               0x1fff5a28   Section       16  my_printf.o(.constdata)
    .constdata                               0x1fff5a38   Section       12  uart.o(.constdata)
    .conststring                             0x1fff5a44   Section       84  main.o(.conststring)
    .conststring                             0x1fff5a98   Section       77  my_printf.o(.conststring)
    .conststring                             0x1fff5ae8   Section       17  phy_sec_ext.o(.conststring)
    .data                                    0x1fff5b2c   Section        1  main.o(.data)
    .data                                    0x1fff5b30   Section        8  adc_demo.o(.data)
    adcDemo_TaskID                           0x1fff5b30   Data           1  adc_demo.o(.data)
    time_cnt                                 0x1fff5b34   Data           4  adc_demo.o(.data)
    .data                                    0x1fff5b38   Section        4  osal_adc.o(.data)
    .data                                    0x1fff5b3c   Section       15  adc.o(.data)
    mAdc_init_flg                            0x1fff5b3c   Data           1  adc.o(.data)
    adc_cal_read_flag                        0x1fff5b3d   Data           1  adc.o(.data)
    adc_cal_postive                          0x1fff5b3e   Data           2  adc.o(.data)
    adc_cal_negtive                          0x1fff5b40   Data           2  adc.o(.data)
    .data                                    0x1fff5b4c   Section        4  timer.o(.data)
    s_ap_callback                            0x1fff5b4c   Data           4  timer.o(.data)
    .data                                    0x1fff5b50   Section       10  pwm.o(.data)
    pwm_en                                   0x1fff5b50   Data           4  pwm.o(.data)
    pwm_gpio_map                             0x1fff5b54   Data           6  pwm.o(.data)
    .data                                    0x1fff5b5c   Section        8  my_printf.o(.data)
    digits                                   0x1fff5b5c   Data           4  my_printf.o(.data)
    upper_digits                             0x1fff5b60   Data           4  my_printf.o(.data)
    .data                                    0x1fff5b64   Section       24  pwrmgr.o(.data)
    mPwrMode                                 0x1fff5b64   Data           1  pwrmgr.o(.data)
    s_config_swClk0                          0x1fff5b68   Data           4  pwrmgr.o(.data)
    sramRet_config                           0x1fff5b70   Data           4  pwrmgr.o(.data)
    .data                                    0x1fff5b7c   Section       16  flash.o(.data)
    s_xflashCtx                              0x1fff5b84   Data           8  flash.o(.data)
    .data                                    0x1fff5b8c   Section        4  jump_table.o(.data)
    .data                                    0x1fff5b90   Section        4  system_armcm0.o(.data)
    .data                                    0x1fff5b94   Section       24  patch.o(.data)
    init_flag                                0x1fff5b95   Data           1  patch.o(.data)
    .data                                    0x1fff5bac   Section        8  rf_phy_driver.o(.data)
    uart_rx_wIdx                             0x1fff5bb0   Data           4  rf_phy_driver.o(.data)
    .data                                    0x1fff5bb4   Section        4  phy_sec_ext.o(.data)
    .data                                    0x1fff5bb8   Section        1  phy_sec_ext.o(.data)
    _section_standby_code_                   0x1fff5bba   Section       14  pwrmgr.o(_section_standby_code_)
    __tagsym$$used                           0x1fff5bba   Number         0  pwrmgr.o(_section_standby_code_)
    .bss                                     0x1fff5bc8   Section     8224  main.o(.bss)
    .bss                                     0x1fff7be8   Section      128  adc_demo.o(.bss)
    .bss                                     0x1fff7c68   Section       40  adc.o(.bss)
    mAdc_Ctx                                 0x1fff7c68   Data          40  adc.o(.bss)
    .bss                                     0x1fff7c90   Section      300  gpio.o(.bss)
    m_gpioCtx                                0x1fff7c90   Data         300  gpio.o(.bss)
    .bss                                     0x1fff7dbc   Section       64  uart.o(.bss)
    m_uartCtx                                0x1fff7dbc   Data          64  uart.o(.bss)
    .bss                                     0x1fff7dfc   Section      120  pwrmgr.o(.bss)
    mCtx                                     0x1fff7dfc   Data         120  pwrmgr.o(.bss)
    .bss                                     0x1fff7e74   Section       32  patch.o(.bss)
    s_trng_seed                              0x1fff7e74   Data          16  patch.o(.bss)
    s_trng_iv                                0x1fff7e84   Data          16  patch.o(.bss)
    .bss                                     0x1fff7e94   Section       16  phy_sec_ext.o(.bss)
    STACK                                    0x1fff7ea8   Section     1024  startup_armcm0.o(STACK)

    Global Symbols

    Symbol Name                              Value     Ov Type        Size  Object(Section)

    BuildAttributes$$THM_ISAv3M$S$PE$A:L22$X:L11$S22$IEEE1$IW$USESV6$~STKCKD$USESV7$~SHL$OTIME$ROPI$EBA8$MICROLIB$REQ8$PRES8$EABIv2 0x00000000   Number         0  anon$$obj.o ABSOLUTE
    __ARM_use_no_argv                        0x00000000   Number         0  main.o ABSOLUTE
    __cpp_initialize__aeabi_                  - Undefined Weak Reference
    __cxa_finalize                            - Undefined Weak Reference
    _clock_init                               - Undefined Weak Reference
    _microlib_exit                            - Undefined Weak Reference
    __Vectors_Size                           0x000000c0   Number         0  startup_armcm0.o ABSOLUTE
    bx_to_application                        0x000000d5   Thumb Code     0  bb_rom_sym_m0.txt ABSOLUTE
    P256_mul64                               0x000001f9   Thumb Code     0  bb_rom_sym_m0.txt ABSOLUTE
    P256_mul128                              0x0000029d   Thumb Code     0  bb_rom_sym_m0.txt ABSOLUTE
    P256_mulmod                              0x0000032d   Thumb Code     0  bb_rom_sym_m0.txt ABSOLUTE
    P256_sqr64                               0x00000567   Thumb Code     0  bb_rom_sym_m0.txt ABSOLUTE
    P256_sqr128                              0x000005c5   Thumb Code     0  bb_rom_sym_m0.txt ABSOLUTE
    P256_sqrmod                              0x00000641   Thumb Code     0  bb_rom_sym_m0.txt ABSOLUTE
    P256_addmod                              0x00000735   Thumb Code     0  bb_rom_sym_m0.txt ABSOLUTE
    P256_submod                              0x00000791   Thumb Code     0  bb_rom_sym_m0.txt ABSOLUTE
    P256_load_1                              0x000007c3   Thumb Code     0  bb_rom_sym_m0.txt ABSOLUTE
    P256_to_montgomery                       0x000007d7   Thumb Code     0  bb_rom_sym_m0.txt ABSOLUTE
    P256_from_montgomery                     0x00000801   Thumb Code     0  bb_rom_sym_m0.txt ABSOLUTE
    P256_point_is_on_curve                   0x0000081b   Thumb Code     0  bb_rom_sym_m0.txt ABSOLUTE
    P256_greater_or_equal_than               0x0000086d   Thumb Code     0  bb_rom_sym_m0.txt ABSOLUTE
    P256_negate_mod_m_if                     0x00000887   Thumb Code     0  bb_rom_sym_m0.txt ABSOLUTE
    P256_copy32                              0x000008a9   Thumb Code     0  bb_rom_sym_m0.txt ABSOLUTE
    P256_copy32_unaligned                    0x000008b5   Thumb Code     0  bb_rom_sym_m0.txt ABSOLUTE
    P256_select                              0x000008c7   Thumb Code     0  bb_rom_sym_m0.txt ABSOLUTE
    P256_double_j                            0x00000927   Thumb Code     0  bb_rom_sym_m0.txt ABSOLUTE
    P256_add_j                               0x0000092b   Thumb Code     0  bb_rom_sym_m0.txt ABSOLUTE
    P256_div2mod                             0x00000983   Thumb Code     0  bb_rom_sym_m0.txt ABSOLUTE
    P256_interpreter                         0x000009e9   Thumb Code     0  bb_rom_sym_m0.txt ABSOLUTE
    P256_sqrmod_many_and_mulmod              0x00000a4d   Thumb Code     0  bb_rom_sym_m0.txt ABSOLUTE
    P256_modinv                              0x00000a6d   Thumb Code     0  bb_rom_sym_m0.txt ABSOLUTE
    P256_jacobian_to_affine                  0x00000af7   Thumb Code     0  bb_rom_sym_m0.txt ABSOLUTE
    P256_abs_int                             0x00000b33   Thumb Code     0  bb_rom_sym_m0.txt ABSOLUTE
    P256_pointmult                           0x00000b41   Thumb Code     0  bb_rom_sym_m0.txt ABSOLUTE
    P256_ecdh_keygen                         0x00000d03   Thumb Code     0  bb_rom_sym_m0.txt ABSOLUTE
    P256_ecdh_shared_secret                  0x00000d0b   Thumb Code     0  bb_rom_sym_m0.txt ABSOLUTE
    __aeabi_uidiv                            0x00000e09   Thumb Code     0  bb_rom_sym_m0.txt ABSOLUTE
    __aeabi_uidivmod                         0x00000e09   Thumb Code     0  bb_rom_sym_m0.txt ABSOLUTE
    __aeabi_idiv                             0x00000e35   Thumb Code     0  bb_rom_sym_m0.txt ABSOLUTE
    __aeabi_idivmod                          0x00000e35   Thumb Code     0  bb_rom_sym_m0.txt ABSOLUTE
    __aeabi_memcpy                           0x00000e81   Thumb Code     0  bb_rom_sym_m0.txt ABSOLUTE
    __aeabi_memcpy4                          0x00000e81   Thumb Code     0  bb_rom_sym_m0.txt ABSOLUTE
    __aeabi_memcpy8                          0x00000e81   Thumb Code     0  bb_rom_sym_m0.txt ABSOLUTE
    __aeabi_memset                           0x00000ea5   Thumb Code     0  bb_rom_sym_m0.txt ABSOLUTE
    __aeabi_memset4                          0x00000ea5   Thumb Code     0  bb_rom_sym_m0.txt ABSOLUTE
    __aeabi_memset8                          0x00000ea5   Thumb Code     0  bb_rom_sym_m0.txt ABSOLUTE
    __aeabi_memclr                           0x00000eb3   Thumb Code     0  bb_rom_sym_m0.txt ABSOLUTE
    __aeabi_memclr4                          0x00000eb3   Thumb Code     0  bb_rom_sym_m0.txt ABSOLUTE
    __aeabi_memclr8                          0x00000eb3   Thumb Code     0  bb_rom_sym_m0.txt ABSOLUTE
    memset                                   0x00000eb7   Thumb Code     0  bb_rom_sym_m0.txt ABSOLUTE
    strlen                                   0x00000ec9   Thumb Code     0  bb_rom_sym_m0.txt ABSOLUTE
    strcmp                                   0x00000ed7   Thumb Code     0  bb_rom_sym_m0.txt ABSOLUTE
    memcmp                                   0x00000ef3   Thumb Code     0  bb_rom_sym_m0.txt ABSOLUTE
    strncmp                                  0x00000f0d   Thumb Code     0  bb_rom_sym_m0.txt ABSOLUTE
    strtok                                   0x00000f2d   Thumb Code     0  bb_rom_sym_m0.txt ABSOLUTE
    __aeabi_uread4                           0x00000f75   Thumb Code     0  bb_rom_sym_m0.txt ABSOLUTE
    __rt_uread4                              0x00000f75   Thumb Code     0  bb_rom_sym_m0.txt ABSOLUTE
    _uread4                                  0x00000f75   Thumb Code     0  bb_rom_sym_m0.txt ABSOLUTE
    strtoul                                  0x00000f89   Thumb Code     0  bb_rom_sym_m0.txt ABSOLUTE
    __rt_ctype_table                         0x00001001   Thumb Code     0  bb_rom_sym_m0.txt ABSOLUTE
    _strtoul                                 0x00001009   Thumb Code     0  bb_rom_sym_m0.txt ABSOLUTE
    GPIO_IRQHandler                          0x0000112d   Thumb Code     0  bb_rom_sym_m0.txt ABSOLUTE
    HCI_CommandCompleteEvent                 0x00001175   Thumb Code     0  bb_rom_sym_m0.txt ABSOLUTE
    HCI_CommandStatusEvent                   0x000011fd   Thumb Code     0  bb_rom_sym_m0.txt ABSOLUTE
    HCI_DataBufferOverflowEvent              0x00001251   Thumb Code     0  bb_rom_sym_m0.txt ABSOLUTE
    HCI_DisconnectCmd                        0x0000128d   Thumb Code     0  bb_rom_sym_m0.txt ABSOLUTE
    HCI_EXT_AdvEventNoticeCmd                0x000012a1   Thumb Code     0  bb_rom_sym_m0.txt ABSOLUTE
    HCI_EXT_BuildRevisionCmd                 0x000012a9   Thumb Code     0  bb_rom_sym_m0.txt ABSOLUTE
    HCI_EXT_ClkDivOnHaltCmd                  0x000012e5   Thumb Code     0  bb_rom_sym_m0.txt ABSOLUTE
    HCI_EXT_ConnEventNoticeCmd               0x0000130d   Thumb Code     0  bb_rom_sym_m0.txt ABSOLUTE
    HCI_EXT_DeclareNvUsageCmd                0x00001315   Thumb Code     0  bb_rom_sym_m0.txt ABSOLUTE
    HCI_EXT_DecryptCmd                       0x00001339   Thumb Code     0  bb_rom_sym_m0.txt ABSOLUTE
    HCI_EXT_DelaySleepCmd                    0x0000137d   Thumb Code     0  bb_rom_sym_m0.txt ABSOLUTE
    HCI_EXT_DisconnectImmedCmd               0x000013a5   Thumb Code     0  bb_rom_sym_m0.txt ABSOLUTE
    HCI_EXT_EnablePTMCmd                     0x000013cd   Thumb Code     0  bb_rom_sym_m0.txt ABSOLUTE
    HCI_EXT_EndModemTestCmd                  0x000013e1   Thumb Code     0  bb_rom_sym_m0.txt ABSOLUTE
    HCI_EXT_HaltDuringRfCmd                  0x00001409   Thumb Code     0  bb_rom_sym_m0.txt ABSOLUTE
    HCI_EXT_ModemHopTestTxCmd                0x00001431   Thumb Code     0  bb_rom_sym_m0.txt ABSOLUTE
    HCI_EXT_ModemTestRxCmd                   0x00001459   Thumb Code     0  bb_rom_sym_m0.txt ABSOLUTE
    HCI_EXT_ModemTestTxCmd                   0x00001481   Thumb Code     0  bb_rom_sym_m0.txt ABSOLUTE
    HCI_EXT_NumComplPktsLimitCmd             0x000014a5   Thumb Code     0  bb_rom_sym_m0.txt ABSOLUTE
    HCI_EXT_OnePktPerEvtCmd                  0x000014c9   Thumb Code     0  bb_rom_sym_m0.txt ABSOLUTE
    HCI_EXT_OverlappedProcessingCmd          0x000014f5   Thumb Code     0  bb_rom_sym_m0.txt ABSOLUTE
    HCI_EXT_PERbyChanCmd                     0x0000151d   Thumb Code     0  bb_rom_sym_m0.txt ABSOLUTE
    HCI_EXT_PacketErrorRateCmd               0x00001541   Thumb Code     0  bb_rom_sym_m0.txt ABSOLUTE
    HCI_EXT_ResetSystemCmd                   0x00001575   Thumb Code     0  bb_rom_sym_m0.txt ABSOLUTE
    HCI_EXT_SaveFreqTuneCmd                  0x0000159d   Thumb Code     0  bb_rom_sym_m0.txt ABSOLUTE
    HCI_EXT_SetBDADDRCmd                     0x000015c5   Thumb Code     0  bb_rom_sym_m0.txt ABSOLUTE
    HCI_EXT_SetFastTxResponseTimeCmd         0x00001601   Thumb Code     0  bb_rom_sym_m0.txt ABSOLUTE
    HCI_EXT_SetFreqTuneCmd                   0x00001629   Thumb Code     0  bb_rom_sym_m0.txt ABSOLUTE
    HCI_EXT_SetLocalSupportedFeaturesCmd     0x00001651   Thumb Code     0  bb_rom_sym_m0.txt ABSOLUTE
    HCI_EXT_SetMaxDtmTxPowerCmd              0x00001679   Thumb Code     0  bb_rom_sym_m0.txt ABSOLUTE
    HCI_EXT_SetRxGainCmd                     0x000016a1   Thumb Code     0  bb_rom_sym_m0.txt ABSOLUTE
    HCI_EXT_SetSCACmd                        0x000016d1   Thumb Code     0  bb_rom_sym_m0.txt ABSOLUTE
    HCI_EXT_SetSlaveLatencyOverrideCmd       0x000016f9   Thumb Code     0  bb_rom_sym_m0.txt ABSOLUTE
    HCI_EXT_SetTxPowerCmd                    0x00001721   Thumb Code     0  bb_rom_sym_m0.txt ABSOLUTE
    HCI_ExtTaskRegister                      0x00001751   Thumb Code     0  bb_rom_sym_m0.txt ABSOLUTE
    HCI_GAPTaskRegister                      0x0000175d   Thumb Code     0  bb_rom_sym_m0.txt ABSOLUTE
    HCI_HardwareErrorEvent                   0x00001769   Thumb Code     0  bb_rom_sym_m0.txt ABSOLUTE
    HCI_HostBufferSizeCmd                    0x000017b1   Thumb Code     0  bb_rom_sym_m0.txt ABSOLUTE
    HCI_HostNumCompletedPktCmd               0x000017e1   Thumb Code     0  bb_rom_sym_m0.txt ABSOLUTE
    HCI_Init                                 0x0000183d   Thumb Code     0  bb_rom_sym_m0.txt ABSOLUTE
    HCI_L2CAPTaskRegister                    0x00001879   Thumb Code     0  bb_rom_sym_m0.txt ABSOLUTE
    HCI_LE_AddDevToResolvingListCmd          0x000018a1   Thumb Code     0  bb_rom_sym_m0.txt ABSOLUTE
    HCI_LE_AddWhiteListCmd                   0x000018bd   Thumb Code     0  bb_rom_sym_m0.txt ABSOLUTE
    HCI_LE_ClearAdvSetsCmd                   0x000018e1   Thumb Code     0  bb_rom_sym_m0.txt ABSOLUTE
    HCI_LE_ClearResolvingListCmd             0x00001919   Thumb Code     0  bb_rom_sym_m0.txt ABSOLUTE
    HCI_LE_ClearWhiteListCmd                 0x00001935   Thumb Code     0  bb_rom_sym_m0.txt ABSOLUTE
    HCI_LE_Connection_CTE_Request_EnableCmd  0x0000196d   Thumb Code     0  bb_rom_sym_m0.txt ABSOLUTE
    HCI_LE_Connection_CTE_Response_EnableCmd 0x00001999   Thumb Code     0  bb_rom_sym_m0.txt ABSOLUTE
    HCI_LE_ConnectionlessCTE_TransmitEnableCmd 0x000019c1   Thumb Code     0  bb_rom_sym_m0.txt ABSOLUTE
    HCI_LE_ConnectionlessCTE_TransmitParamCmd 0x000019dd   Thumb Code     0  bb_rom_sym_m0.txt ABSOLUTE
    HCI_LE_ConnectionlessIQ_SampleEnableCmd  0x00001a01   Thumb Code     0  bb_rom_sym_m0.txt ABSOLUTE
    HCI_LE_CreateConnCancelCmd               0x00001a31   Thumb Code     0  bb_rom_sym_m0.txt ABSOLUTE
    HCI_LE_CreateConnCmd                     0x00001a4d   Thumb Code     0  bb_rom_sym_m0.txt ABSOLUTE
    HCI_LE_EncryptCmd                        0x00001a89   Thumb Code     0  bb_rom_sym_m0.txt ABSOLUTE
    HCI_LE_ExtendedCreateConnectionCmd       0x00001ac1   Thumb Code     0  bb_rom_sym_m0.txt ABSOLUTE
    HCI_LE_PeriodicAdvertisingCreateSyncCancelCmd 0x00001b59   Thumb Code     0  bb_rom_sym_m0.txt ABSOLUTE
    HCI_LE_PeriodicAdvertisingCreateSyncCmd  0x00001b75   Thumb Code     0  bb_rom_sym_m0.txt ABSOLUTE
    HCI_LE_PeriodicAdvertisingTerminateSyncCmd 0x00001b9d   Thumb Code     0  bb_rom_sym_m0.txt ABSOLUTE
    HCI_LE_READ_Anatenna_InfoCmd             0x00001bb9   Thumb Code     0  bb_rom_sym_m0.txt ABSOLUTE
    HCI_LE_RandCmd                           0x00001bd9   Thumb Code     0  bb_rom_sym_m0.txt ABSOLUTE
    HCI_LE_ReadAdvChanTxPowerCmd             0x00001c09   Thumb Code     0  bb_rom_sym_m0.txt ABSOLUTE
    HCI_LE_ReadBufSizeCmd                    0x00001c29   Thumb Code     0  bb_rom_sym_m0.txt ABSOLUTE
    HCI_LE_ReadChannelMapCmd                 0x00001c4d   Thumb Code     0  bb_rom_sym_m0.txt ABSOLUTE
    HCI_LE_ReadLocalSupportedFeaturesCmd     0x00001c99   Thumb Code     0  bb_rom_sym_m0.txt ABSOLUTE
    HCI_LE_ReadMaxDataLengthCmd              0x00001cb9   Thumb Code     0  bb_rom_sym_m0.txt ABSOLUTE
    HCI_LE_ReadMaximumAdvDataLengthCmd       0x00001ce9   Thumb Code     0  bb_rom_sym_m0.txt ABSOLUTE
    HCI_LE_ReadNumberOfSupportAdvSetCmd      0x00001d11   Thumb Code     0  bb_rom_sym_m0.txt ABSOLUTE
    HCI_LE_ReadPhyMode                       0x00001d71   Thumb Code     0  bb_rom_sym_m0.txt ABSOLUTE
    HCI_LE_ReadRemoteUsedFeaturesCmd         0x00001db1   Thumb Code     0  bb_rom_sym_m0.txt ABSOLUTE
    HCI_LE_ReadResolvingListSizeCmd          0x00001dc5   Thumb Code     0  bb_rom_sym_m0.txt ABSOLUTE
    HCI_LE_ReadSuggestedDefaultDataLengthCmd 0x00001de5   Thumb Code     0  bb_rom_sym_m0.txt ABSOLUTE
    HCI_LE_ReadSupportedStatesCmd            0x00001e15   Thumb Code     0  bb_rom_sym_m0.txt ABSOLUTE
    HCI_LE_ReadWhiteListSizeCmd              0x00001e3d   Thumb Code     0  bb_rom_sym_m0.txt ABSOLUTE
    HCI_LE_ReceiverTestCmd                   0x00001e9d   Thumb Code     0  bb_rom_sym_m0.txt ABSOLUTE
    HCI_LE_RemoveAdvSetCmd                   0x00001eb1   Thumb Code     0  bb_rom_sym_m0.txt ABSOLUTE
    HCI_LE_RemoveResolvingListCmd            0x00001ee9   Thumb Code     0  bb_rom_sym_m0.txt ABSOLUTE
    HCI_LE_RemoveWhiteListCmd                0x00001f0d   Thumb Code     0  bb_rom_sym_m0.txt ABSOLUTE
    HCI_LE_SetAddressResolutionEnableCmd     0x00001f31   Thumb Code     0  bb_rom_sym_m0.txt ABSOLUTE
    HCI_LE_SetAdvDataCmd                     0x00001f4d   Thumb Code     0  bb_rom_sym_m0.txt ABSOLUTE
    HCI_LE_SetAdvEnableCmd                   0x00001f69   Thumb Code     0  bb_rom_sym_m0.txt ABSOLUTE
    HCI_LE_SetAdvParamCmd                    0x00001f85   Thumb Code     0  bb_rom_sym_m0.txt ABSOLUTE
    HCI_LE_SetDataLengthCmd                  0x00001fb1   Thumb Code     0  bb_rom_sym_m0.txt ABSOLUTE
    HCI_LE_SetDefaultPhyMode                 0x00001fd9   Thumb Code     0  bb_rom_sym_m0.txt ABSOLUTE
    HCI_LE_SetEventMaskCmd                   0x00001ff5   Thumb Code     0  bb_rom_sym_m0.txt ABSOLUTE
    HCI_LE_SetExtAdvDataCmd                  0x0000202d   Thumb Code     0  bb_rom_sym_m0.txt ABSOLUTE
    HCI_LE_SetExtAdvEnableCmd                0x0000204d   Thumb Code     0  bb_rom_sym_m0.txt ABSOLUTE
    HCI_LE_SetExtAdvParamCmd                 0x0000206d   Thumb Code     0  bb_rom_sym_m0.txt ABSOLUTE
    HCI_LE_SetExtAdvSetRandomAddressCmd      0x000020c1   Thumb Code     0  bb_rom_sym_m0.txt ABSOLUTE
    HCI_LE_SetExtScanRspDataCmd              0x000020dd   Thumb Code     0  bb_rom_sym_m0.txt ABSOLUTE
    HCI_LE_SetExtendedScanEnableCmd          0x000020fd   Thumb Code     0  bb_rom_sym_m0.txt ABSOLUTE
    HCI_LE_SetExtendedScanParametersCmd      0x00002119   Thumb Code     0  bb_rom_sym_m0.txt ABSOLUTE
    HCI_LE_SetPeriodicAdvDataCmd             0x00002159   Thumb Code     0  bb_rom_sym_m0.txt ABSOLUTE
    HCI_LE_SetPeriodicAdvEnableCmd           0x00002175   Thumb Code     0  bb_rom_sym_m0.txt ABSOLUTE
    HCI_LE_SetPeriodicAdvParameterCmd        0x00002191   Thumb Code     0  bb_rom_sym_m0.txt ABSOLUTE
    HCI_LE_SetPhyMode                        0x000021ad   Thumb Code     0  bb_rom_sym_m0.txt ABSOLUTE
    HCI_LE_SetRandomAddressCmd               0x000021c5   Thumb Code     0  bb_rom_sym_m0.txt ABSOLUTE
    HCI_LE_SetResolvablePrivateAddressTimeoutCmd 0x000021e9   Thumb Code     0  bb_rom_sym_m0.txt ABSOLUTE
    HCI_LE_SetScanEnableCmd                  0x00002219   Thumb Code     0  bb_rom_sym_m0.txt ABSOLUTE
    HCI_LE_SetScanParamCmd                   0x00002235   Thumb Code     0  bb_rom_sym_m0.txt ABSOLUTE
    HCI_LE_SetScanRspDataCmd                 0x00002255   Thumb Code     0  bb_rom_sym_m0.txt ABSOLUTE
    HCI_LE_Set_ConnectionCTE_ReceiveParamCmd 0x00002271   Thumb Code     0  bb_rom_sym_m0.txt ABSOLUTE
    HCI_LE_Set_ConnectionCTE_TransmitParamCmd 0x0000229d   Thumb Code     0  bb_rom_sym_m0.txt ABSOLUTE
    HCI_LE_StartEncyptCmd                    0x000022e1   Thumb Code     0  bb_rom_sym_m0.txt ABSOLUTE
    HCI_LE_TestEndCmd                        0x000022f5   Thumb Code     0  bb_rom_sym_m0.txt ABSOLUTE
    HCI_LE_TransmitterTestCmd                0x0000231d   Thumb Code     0  bb_rom_sym_m0.txt ABSOLUTE
    HCI_LE_WriteSuggestedDefaultDataLengthCmd 0x00002339   Thumb Code     0  bb_rom_sym_m0.txt ABSOLUTE
    HCI_NumOfCompletedPacketsEvent           0x00002371   Thumb Code     0  bb_rom_sym_m0.txt ABSOLUTE
    HCI_PPLUS_AdvEventDoneNoticeCmd          0x00002401   Thumb Code     0  bb_rom_sym_m0.txt ABSOLUTE
    HCI_PPLUS_ConnEventDoneNoticeCmd         0x00002421   Thumb Code     0  bb_rom_sym_m0.txt ABSOLUTE
    HCI_PPLUS_DateLengthChangedNoticeCmd     0x00002461   Thumb Code     0  bb_rom_sym_m0.txt ABSOLUTE
    HCI_PPLUS_ExtendTRXCmd                   0x000024a1   Thumb Code     0  bb_rom_sym_m0.txt ABSOLUTE
    HCI_PPLUS_PhyUpdateNoticeCmd             0x000024bd   Thumb Code     0  bb_rom_sym_m0.txt ABSOLUTE
    HCI_ProcessEvent                         0x000024fd   Thumb Code     0  bb_rom_sym_m0.txt ABSOLUTE
    HCI_ReadBDADDRCmd                        0x00002551   Thumb Code     0  bb_rom_sym_m0.txt ABSOLUTE
    HCI_ReadLocalSupportedCommandsCmd        0x00002571   Thumb Code     0  bb_rom_sym_m0.txt ABSOLUTE
    HCI_ReadLocalSupportedFeaturesCmd        0x00002589   Thumb Code     0  bb_rom_sym_m0.txt ABSOLUTE
    HCI_ReadLocalVersionInfoCmd              0x000025ad   Thumb Code     0  bb_rom_sym_m0.txt ABSOLUTE
    HCI_ReadRemoteVersionInfoCmd             0x000025f5   Thumb Code     0  bb_rom_sym_m0.txt ABSOLUTE
    HCI_ReadRssiCmd                          0x00002625   Thumb Code     0  bb_rom_sym_m0.txt ABSOLUTE
    HCI_ReadTransmitPowerLevelCmd            0x00002651   Thumb Code     0  bb_rom_sym_m0.txt ABSOLUTE
    HCI_ResetCmd                             0x0000267d   Thumb Code     0  bb_rom_sym_m0.txt ABSOLUTE
    HCI_ReverseBytes                         0x000026a9   Thumb Code     0  bb_rom_sym_m0.txt ABSOLUTE
    HCI_SMPTaskRegister                      0x000026c9   Thumb Code     0  bb_rom_sym_m0.txt ABSOLUTE
    HCI_SendCommandCompleteEvent             0x000026d5   Thumb Code     0  bb_rom_sym_m0.txt ABSOLUTE
    HCI_SendCommandStatusEvent               0x0000277d   Thumb Code     0  bb_rom_sym_m0.txt ABSOLUTE
    HCI_SendControllerToHostEvent            0x0000279d   Thumb Code     0  bb_rom_sym_m0.txt ABSOLUTE
    HCI_SendDataPkt                          0x000027e9   Thumb Code     0  bb_rom_sym_m0.txt ABSOLUTE
    HCI_SetControllerToHostFlowCtrlCmd       0x00002819   Thumb Code     0  bb_rom_sym_m0.txt ABSOLUTE
    HCI_SetEventMaskCmd                      0x0000285d   Thumb Code     0  bb_rom_sym_m0.txt ABSOLUTE
    HCI_TestAppTaskRegister                  0x0000288d   Thumb Code     0  bb_rom_sym_m0.txt ABSOLUTE
    HCI_ValidConnTimeParams                  0x00002899   Thumb Code     0  bb_rom_sym_m0.txt ABSOLUTE
    HCI_VendorSpecifcCommandCompleteEvent    0x000028d9   Thumb Code     0  bb_rom_sym_m0.txt ABSOLUTE
    HCI_bm_alloc                             0x000028e9   Thumb Code     0  bb_rom_sym_m0.txt ABSOLUTE
    HardFault_Handler                        0x000028f1   Thumb Code     0  bb_rom_sym_m0.txt ABSOLUTE
    HardFault_IRQHandler                     0x00002909   Thumb Code     0  bb_rom_sym_m0.txt ABSOLUTE
    LL_AddResolvingListLDevice               0x000029dd   Thumb Code     0  bb_rom_sym_m0.txt ABSOLUTE
    LL_AddWhiteListDevice                    0x00002a95   Thumb Code     0  bb_rom_sym_m0.txt ABSOLUTE
    LL_AdvReportCback                        0x00002b11   Thumb Code     0  bb_rom_sym_m0.txt ABSOLUTE
    LL_CTE_Report_FailedCback                0x00002ca1   Thumb Code     0  bb_rom_sym_m0.txt ABSOLUTE
    LL_ChanMapUpdate                         0x00002d0d   Thumb Code     0  bb_rom_sym_m0.txt ABSOLUTE
    LL_ClearAdvSets                          0x00002e2d   Thumb Code     0  bb_rom_sym_m0.txt ABSOLUTE
    LL_ClearResolvingList                    0x00002f41   Thumb Code     0  bb_rom_sym_m0.txt ABSOLUTE
    LL_ClearWhiteList                        0x00002fbd   Thumb Code     0  bb_rom_sym_m0.txt ABSOLUTE
    LL_ConnActive                            0x00003011   Thumb Code     0  bb_rom_sym_m0.txt ABSOLUTE
    LL_ConnParamUpdateCback                  0x00003039   Thumb Code     0  bb_rom_sym_m0.txt ABSOLUTE
    LL_ConnUpdate                            0x000030e5   Thumb Code     0  bb_rom_sym_m0.txt ABSOLUTE
    LL_ConnectionCompleteCback               0x000031b9   Thumb Code     0  bb_rom_sym_m0.txt ABSOLUTE
    LL_ConnectionIQReportCback               0x000032d5   Thumb Code     0  bb_rom_sym_m0.txt ABSOLUTE
    LL_Connection_CTE_Request_Enable         0x000033e5   Thumb Code     0  bb_rom_sym_m0.txt ABSOLUTE
    LL_Connection_CTE_Response_Enable        0x00003499   Thumb Code     0  bb_rom_sym_m0.txt ABSOLUTE
    LL_ConnectionlessCTE_TransmitEnable      0x00003505   Thumb Code     0  bb_rom_sym_m0.txt ABSOLUTE
    LL_ConnectionlessCTE_TransmitParam       0x000035e5   Thumb Code     0  bb_rom_sym_m0.txt ABSOLUTE
    LL_ConnectionlessIQReportCback           0x000036c1   Thumb Code     0  bb_rom_sym_m0.txt ABSOLUTE
    LL_ConnectionlessIQ_SampleEnable         0x000037c5   Thumb Code     0  bb_rom_sym_m0.txt ABSOLUTE
    LL_CreateConn                            0x00003901   Thumb Code     0  bb_rom_sym_m0.txt ABSOLUTE
    LL_CreateConn0                           0x00003949   Thumb Code     0  bb_rom_sym_m0.txt ABSOLUTE
    LL_CreateConnCancel                      0x00003c91   Thumb Code     0  bb_rom_sym_m0.txt ABSOLUTE
    LL_CtrlToHostFlowControl                 0x00003d59   Thumb Code     0  bb_rom_sym_m0.txt ABSOLUTE
    LL_DataLengthChangeCback                 0x00003d71   Thumb Code     0  bb_rom_sym_m0.txt ABSOLUTE
    LL_DirectTestEnd                         0x00003e3d   Thumb Code     0  bb_rom_sym_m0.txt ABSOLUTE
    LL_DirectTestTxTest                      0x00003e95   Thumb Code     0  bb_rom_sym_m0.txt ABSOLUTE
    LL_Disconnect                            0x00003eb1   Thumb Code     0  bb_rom_sym_m0.txt ABSOLUTE
    LL_DisconnectCback                       0x00003f41   Thumb Code     0  bb_rom_sym_m0.txt ABSOLUTE
    LL_ENC_AES128_Encrypt                    0x00003fc5   Thumb Code     0  bb_rom_sym_m0.txt ABSOLUTE
    LL_ENC_AES128_Encrypt0                   0x00003fdd   Thumb Code     0  bb_rom_sym_m0.txt ABSOLUTE
    LL_ENC_Decrypt                           0x000040ed   Thumb Code     0  bb_rom_sym_m0.txt ABSOLUTE
    LL_ENC_Decrypt0                          0x00004105   Thumb Code     0  bb_rom_sym_m0.txt ABSOLUTE
    LL_ENC_Encrypt                           0x00004261   Thumb Code     0  bb_rom_sym_m0.txt ABSOLUTE
    LL_ENC_Encrypt0                          0x00004279   Thumb Code     0  bb_rom_sym_m0.txt ABSOLUTE
    LL_ENC_GenDeviceIV                       0x000043c1   Thumb Code     0  bb_rom_sym_m0.txt ABSOLUTE
    LL_ENC_GenDeviceSKD                      0x000043f1   Thumb Code     0  bb_rom_sym_m0.txt ABSOLUTE
    LL_ENC_GenerateNonce                     0x00004421   Thumb Code     0  bb_rom_sym_m0.txt ABSOLUTE
    LL_ENC_GeneratePseudoRandNum             0x00004459   Thumb Code     0  bb_rom_sym_m0.txt ABSOLUTE
    LL_ENC_GenerateTrueRandNum               0x00004469   Thumb Code     0  bb_rom_sym_m0.txt ABSOLUTE
    LL_ENC_LoadKey                           0x00004489   Thumb Code     0  bb_rom_sym_m0.txt ABSOLUTE
    LL_ENC_ReverseBytes                      0x000044e1   Thumb Code     0  bb_rom_sym_m0.txt ABSOLUTE
    LL_ENC_sm_ah                             0x00004501   Thumb Code     0  bb_rom_sym_m0.txt ABSOLUTE
    LL_EXT_AdvEventNotice                    0x00004543   Thumb Code     0  bb_rom_sym_m0.txt ABSOLUTE
    LL_EXT_BuildRevision                     0x00004547   Thumb Code     0  bb_rom_sym_m0.txt ABSOLUTE
    LL_EXT_ClkDivOnHalt                      0x0000454b   Thumb Code     0  bb_rom_sym_m0.txt ABSOLUTE
    LL_EXT_ConnEventNotice                   0x0000454f   Thumb Code     0  bb_rom_sym_m0.txt ABSOLUTE
    LL_EXT_DeclareNvUsage                    0x00004553   Thumb Code     0  bb_rom_sym_m0.txt ABSOLUTE
    LL_EXT_Decrypt                           0x00004557   Thumb Code     0  bb_rom_sym_m0.txt ABSOLUTE
    LL_EXT_DelaySleep                        0x0000455b   Thumb Code     0  bb_rom_sym_m0.txt ABSOLUTE
    LL_EXT_DisconnectImmed                   0x0000455f   Thumb Code     0  bb_rom_sym_m0.txt ABSOLUTE
    LL_EXT_EndModemTest                      0x00004563   Thumb Code     0  bb_rom_sym_m0.txt ABSOLUTE
    LL_EXT_HaltDuringRf                      0x00004567   Thumb Code     0  bb_rom_sym_m0.txt ABSOLUTE
    LL_EXT_Init_IQ_pBuff                     0x0000456d   Thumb Code     0  bb_rom_sym_m0.txt ABSOLUTE
    LL_EXT_MapPmIoPort                       0x00004581   Thumb Code     0  bb_rom_sym_m0.txt ABSOLUTE
    LL_EXT_ModemHopTestTx                    0x00004585   Thumb Code     0  bb_rom_sym_m0.txt ABSOLUTE
    LL_EXT_ModemTestRx                       0x00004589   Thumb Code     0  bb_rom_sym_m0.txt ABSOLUTE
    LL_EXT_ModemTestTx                       0x0000458d   Thumb Code     0  bb_rom_sym_m0.txt ABSOLUTE
    LL_EXT_NumComplPktsLimit                 0x00004591   Thumb Code     0  bb_rom_sym_m0.txt ABSOLUTE
    LL_EXT_OnePacketPerEvent                 0x000045ad   Thumb Code     0  bb_rom_sym_m0.txt ABSOLUTE
    LL_EXT_OverlappedProcessing              0x000045b1   Thumb Code     0  bb_rom_sym_m0.txt ABSOLUTE
    LL_EXT_PERbyChan                         0x000045b5   Thumb Code     0  bb_rom_sym_m0.txt ABSOLUTE
    LL_EXT_PacketErrorRate                   0x000045b9   Thumb Code     0  bb_rom_sym_m0.txt ABSOLUTE
    LL_EXT_PacketErrorRateCback              0x000045bd   Thumb Code     0  bb_rom_sym_m0.txt ABSOLUTE
    LL_EXT_ResetSystem                       0x000045f9   Thumb Code     0  bb_rom_sym_m0.txt ABSOLUTE
    LL_EXT_SaveFreqTune                      0x000045fd   Thumb Code     0  bb_rom_sym_m0.txt ABSOLUTE
    LL_EXT_SetBDADDR                         0x00004601   Thumb Code     0  bb_rom_sym_m0.txt ABSOLUTE
    LL_EXT_SetFastTxResponseTime             0x00004605   Thumb Code     0  bb_rom_sym_m0.txt ABSOLUTE
    LL_EXT_SetFreqTune                       0x00004609   Thumb Code     0  bb_rom_sym_m0.txt ABSOLUTE
    LL_EXT_SetLocalSupportedFeatures         0x0000460d   Thumb Code     0  bb_rom_sym_m0.txt ABSOLUTE
    LL_EXT_SetMaxDtmTxPower                  0x00004611   Thumb Code     0  bb_rom_sym_m0.txt ABSOLUTE
    LL_EXT_SetRxGain                         0x00004615   Thumb Code     0  bb_rom_sym_m0.txt ABSOLUTE
    LL_EXT_SetRxGainCback                    0x00004619   Thumb Code     0  bb_rom_sym_m0.txt ABSOLUTE
    LL_EXT_SetSCA                            0x00004635   Thumb Code     0  bb_rom_sym_m0.txt ABSOLUTE
    LL_EXT_SetSlaveLatencyOverride           0x00004639   Thumb Code     0  bb_rom_sym_m0.txt ABSOLUTE
    LL_EXT_SetTxPower                        0x0000463d   Thumb Code     0  bb_rom_sym_m0.txt ABSOLUTE
    LL_EXT_SetTxPowerCback                   0x00004679   Thumb Code     0  bb_rom_sym_m0.txt ABSOLUTE
    LL_EncChangeCback                        0x00004699   Thumb Code     0  bb_rom_sym_m0.txt ABSOLUTE
    LL_EncKeyRefreshCback                    0x00004715   Thumb Code     0  bb_rom_sym_m0.txt ABSOLUTE
    LL_EncLtkReqCback                        0x00004831   Thumb Code     0  bb_rom_sym_m0.txt ABSOLUTE
    LL_Encrypt                               0x000048e5   Thumb Code     0  bb_rom_sym_m0.txt ABSOLUTE
    LL_ExtAdvReportCback                     0x00004a8d   Thumb Code     0  bb_rom_sym_m0.txt ABSOLUTE
    LL_ExtendedCreateConnection              0x00004bfd   Thumb Code     0  bb_rom_sym_m0.txt ABSOLUTE
    LL_IRQHandler                            0x00004e25   Thumb Code     0  bb_rom_sym_m0.txt ABSOLUTE
    LL_Init                                  0x00004eb1   Thumb Code     0  bb_rom_sym_m0.txt ABSOLUTE
    LL_InitConnectContext                    0x00005045   Thumb Code     0  bb_rom_sym_m0.txt ABSOLUTE
    LL_InitExtendedAdv                       0x0000511d   Thumb Code     0  bb_rom_sym_m0.txt ABSOLUTE
    LL_InitExtendedScan                      0x000051b5   Thumb Code     0  bb_rom_sym_m0.txt ABSOLUTE
    LL_InitPeriodicAdv                       0x000051c5   Thumb Code     0  bb_rom_sym_m0.txt ABSOLUTE
    LL_NumEmptyWlEntries                     0x00005291   Thumb Code     0  bb_rom_sym_m0.txt ABSOLUTE
    LL_PLUS_DisableSlaveLatency              0x000052a5   Thumb Code     0  bb_rom_sym_m0.txt ABSOLUTE
    LL_PLUS_EnableSlaveLatency               0x00005435   Thumb Code     0  bb_rom_sym_m0.txt ABSOLUTE
    LL_PLUS_GetAdvDataExtendData             0x0000548d   Thumb Code     0  bb_rom_sym_m0.txt ABSOLUTE
    LL_PLUS_GetScanRequestExtendData         0x00005495   Thumb Code     0  bb_rom_sym_m0.txt ABSOLUTE
    LL_PLUS_GetScanerAddr                    0x000054bd   Thumb Code     0  bb_rom_sym_m0.txt ABSOLUTE
    LL_PLUS_PerStasReadByChn                 0x000054d5   Thumb Code     0  bb_rom_sym_m0.txt ABSOLUTE
    LL_PLUS_PerStatsReset                    0x00005519   Thumb Code     0  bb_rom_sym_m0.txt ABSOLUTE
    LL_PLUS_PerStats_Init                    0x00005535   Thumb Code     0  bb_rom_sym_m0.txt ABSOLUTE
    LL_PLUS_SetAdvDataFilterCB               0x00005545   Thumb Code     0  bb_rom_sym_m0.txt ABSOLUTE
    LL_PLUS_SetScanRequestData               0x00005551   Thumb Code     0  bb_rom_sym_m0.txt ABSOLUTE
    LL_PLUS_SetScanRequestFilterCB           0x00005579   Thumb Code     0  bb_rom_sym_m0.txt ABSOLUTE
    LL_PLUS_SetScanRsqData                   0x00005585   Thumb Code     0  bb_rom_sym_m0.txt ABSOLUTE
    LL_PLUS_SetScanRsqDataByIndex            0x000055b1   Thumb Code     0  bb_rom_sym_m0.txt ABSOLUTE
    LL_PeriodicAdvertisingCreateSync         0x000055bd   Thumb Code     0  bb_rom_sym_m0.txt ABSOLUTE
    LL_PeriodicAdvertisingCreateSyncCancel   0x0000560d   Thumb Code     0  bb_rom_sym_m0.txt ABSOLUTE
    LL_PeriodicAdvertisingTerminateSync      0x00005635   Thumb Code     0  bb_rom_sym_m0.txt ABSOLUTE
    LL_PhyUpdate                             0x00005655   Thumb Code     0  bb_rom_sym_m0.txt ABSOLUTE
    LL_PhyUpdate0                            0x0000566d   Thumb Code     0  bb_rom_sym_m0.txt ABSOLUTE
    LL_PhyUpdateCompleteCback                0x00005725   Thumb Code     0  bb_rom_sym_m0.txt ABSOLUTE
    LL_PrdAdvReportCback                     0x000057c9   Thumb Code     0  bb_rom_sym_m0.txt ABSOLUTE
    LL_PrdAdvSyncEstablishedCback            0x000058b5   Thumb Code     0  bb_rom_sym_m0.txt ABSOLUTE
    LL_PrdAdvSyncLostCback                   0x00005989   Thumb Code     0  bb_rom_sym_m0.txt ABSOLUTE
    LL_ProcessEvent                          0x000059f1   Thumb Code     0  bb_rom_sym_m0.txt ABSOLUTE
    LL_PseudoRand                            0x00005dd9   Thumb Code     0  bb_rom_sym_m0.txt ABSOLUTE
    LL_READ_Anatenna_Info                    0x00005ddd   Thumb Code     0  bb_rom_sym_m0.txt ABSOLUTE
    LL_RX_bm_alloc                           0x00005df1   Thumb Code     0  bb_rom_sym_m0.txt ABSOLUTE
    LL_Rand                                  0x00005e05   Thumb Code     0  bb_rom_sym_m0.txt ABSOLUTE
    LL_RandCback                             0x00005e65   Thumb Code     0  bb_rom_sym_m0.txt ABSOLUTE
    LL_ReadAdvChanTxPower                    0x00005e89   Thumb Code     0  bb_rom_sym_m0.txt ABSOLUTE
    LL_ReadBDADDR                            0x00005eb9   Thumb Code     0  bb_rom_sym_m0.txt ABSOLUTE
    LL_ReadCarrSens                          0x00005edd   Thumb Code     0  bb_rom_sym_m0.txt ABSOLUTE
    LL_ReadChanMap                           0x00005ef9   Thumb Code     0  bb_rom_sym_m0.txt ABSOLUTE
    LL_ReadFoff                              0x00005f31   Thumb Code     0  bb_rom_sym_m0.txt ABSOLUTE
    LL_ReadLocalSupportedFeatures            0x00005f71   Thumb Code     0  bb_rom_sym_m0.txt ABSOLUTE
    LL_ReadLocalVersionInfo                  0x00005f8d   Thumb Code     0  bb_rom_sym_m0.txt ABSOLUTE
    LL_ReadMaximumAdvDataLength              0x00005fa5   Thumb Code     0  bb_rom_sym_m0.txt ABSOLUTE
    LL_ReadNumberOfSupportAdvSet             0x00005fc5   Thumb Code     0  bb_rom_sym_m0.txt ABSOLUTE
    LL_ReadRemoteUsedFeatures                0x00006021   Thumb Code     0  bb_rom_sym_m0.txt ABSOLUTE
    LL_ReadRemoteUsedFeaturesCompleteCback   0x00006061   Thumb Code     0  bb_rom_sym_m0.txt ABSOLUTE
    LL_ReadRemoteVersionInfo                 0x000060d5   Thumb Code     0  bb_rom_sym_m0.txt ABSOLUTE
    LL_ReadRemoteVersionInfoCback            0x00006131   Thumb Code     0  bb_rom_sym_m0.txt ABSOLUTE
    LL_ReadResolvingListSize                 0x000061a9   Thumb Code     0  bb_rom_sym_m0.txt ABSOLUTE
    LL_ReadRssi                              0x000061b1   Thumb Code     0  bb_rom_sym_m0.txt ABSOLUTE
    LL_ReadSupportedStates                   0x000061e5   Thumb Code     0  bb_rom_sym_m0.txt ABSOLUTE
    LL_ReadTxPowerLevel                      0x00006269   Thumb Code     0  bb_rom_sym_m0.txt ABSOLUTE
    LL_ReadWlSize                            0x000062e5   Thumb Code     0  bb_rom_sym_m0.txt ABSOLUTE
    LL_RemoveAdvSet                          0x00006335   Thumb Code     0  bb_rom_sym_m0.txt ABSOLUTE
    LL_RemoveResolvingListDevice             0x000064a5   Thumb Code     0  bb_rom_sym_m0.txt ABSOLUTE
    LL_RemoveWhiteListDevice                 0x00006561   Thumb Code     0  bb_rom_sym_m0.txt ABSOLUTE
    LL_Reset                                 0x000065f1   Thumb Code     0  bb_rom_sym_m0.txt ABSOLUTE
    LL_RxDataCompleteCback                   0x00006791   Thumb Code     0  bb_rom_sym_m0.txt ABSOLUTE
    LL_SetAddressResolutionEnable            0x00006831   Thumb Code     0  bb_rom_sym_m0.txt ABSOLUTE
    LL_SetAdvControl                         0x00006881   Thumb Code     0  bb_rom_sym_m0.txt ABSOLUTE
    LL_SetAdvControl0                        0x00006899   Thumb Code     0  bb_rom_sym_m0.txt ABSOLUTE
    LL_SetAdvData                            0x00006a05   Thumb Code     0  bb_rom_sym_m0.txt ABSOLUTE
    LL_SetAdvParam                           0x00006a6d   Thumb Code     0  bb_rom_sym_m0.txt ABSOLUTE
    LL_SetAdvParam0                          0x00006a9d   Thumb Code     0  bb_rom_sym_m0.txt ABSOLUTE
    LL_SetDataLengh                          0x00006df9   Thumb Code     0  bb_rom_sym_m0.txt ABSOLUTE
    LL_SetDataLengh0                         0x00006e11   Thumb Code     0  bb_rom_sym_m0.txt ABSOLUTE
    LL_SetDefaultPhyMode                     0x00006ead   Thumb Code     0  bb_rom_sym_m0.txt ABSOLUTE
    LL_SetExtAdvData                         0x00006edd   Thumb Code     0  bb_rom_sym_m0.txt ABSOLUTE
    LL_SetExtAdvEnable                       0x00006fc5   Thumb Code     0  bb_rom_sym_m0.txt ABSOLUTE
    LL_SetExtAdvParam                        0x00007205   Thumb Code     0  bb_rom_sym_m0.txt ABSOLUTE
    LL_SetExtAdvSetRandomAddress             0x000073a9   Thumb Code     0  bb_rom_sym_m0.txt ABSOLUTE
    LL_SetExtScanRspData                     0x000073f5   Thumb Code     0  bb_rom_sym_m0.txt ABSOLUTE
    LL_SetExtendedScanEnable                 0x00007471   Thumb Code     0  bb_rom_sym_m0.txt ABSOLUTE
    LL_SetExtendedScanParameters             0x000074b5   Thumb Code     0  bb_rom_sym_m0.txt ABSOLUTE
    LL_SetPeriodicAdvData                    0x0000751d   Thumb Code     0  bb_rom_sym_m0.txt ABSOLUTE
    LL_SetPeriodicAdvEnable                  0x000075cd   Thumb Code     0  bb_rom_sym_m0.txt ABSOLUTE
    LL_SetPeriodicAdvParameter               0x00007715   Thumb Code     0  bb_rom_sym_m0.txt ABSOLUTE
    LL_SetPhyMode                            0x000077e1   Thumb Code     0  bb_rom_sym_m0.txt ABSOLUTE
    LL_SetPhyMode0                           0x000077fd   Thumb Code     0  bb_rom_sym_m0.txt ABSOLUTE
    LL_SetRandomAddress                      0x000078c9   Thumb Code     0  bb_rom_sym_m0.txt ABSOLUTE
    LL_SetResolvablePrivateAddressTimeout    0x00007929   Thumb Code     0  bb_rom_sym_m0.txt ABSOLUTE
    LL_SetScanControl                        0x00007935   Thumb Code     0  bb_rom_sym_m0.txt ABSOLUTE
    LL_SetScanControl0                       0x0000794d   Thumb Code     0  bb_rom_sym_m0.txt ABSOLUTE
    LL_SetScanParam                          0x00007a59   Thumb Code     0  bb_rom_sym_m0.txt ABSOLUTE
    LL_SetScanParam0                         0x00007a75   Thumb Code     0  bb_rom_sym_m0.txt ABSOLUTE
    LL_SetScanRspData                        0x00007b15   Thumb Code     0  bb_rom_sym_m0.txt ABSOLUTE
    LL_SetTxPowerLevel                       0x00007b65   Thumb Code     0  bb_rom_sym_m0.txt ABSOLUTE
    LL_Set_ConnectionCTE_ReceiveParam        0x00007b91   Thumb Code     0  bb_rom_sym_m0.txt ABSOLUTE
    LL_Set_ConnectionCTE_TransmitParam       0x00007c99   Thumb Code     0  bb_rom_sym_m0.txt ABSOLUTE
    LL_StartEncrypt                          0x00007e01   Thumb Code     0  bb_rom_sym_m0.txt ABSOLUTE
    LL_TX_bm_alloc                           0x00007f01   Thumb Code     0  bb_rom_sym_m0.txt ABSOLUTE
    LL_TxData                                0x00007f1d   Thumb Code     0  bb_rom_sym_m0.txt ABSOLUTE
    LL_WriteSuggestedDefaultDataLength       0x00007fb9   Thumb Code     0  bb_rom_sym_m0.txt ABSOLUTE
    LL_evt_schedule                          0x00007ff9   Thumb Code     0  bb_rom_sym_m0.txt ABSOLUTE
    LL_extAdvTimerExpProcess                 0x000080b5   Thumb Code     0  bb_rom_sym_m0.txt ABSOLUTE
    LL_extInitTimerExpProcess                0x000080b9   Thumb Code     0  bb_rom_sym_m0.txt ABSOLUTE
    LL_extScanTimerExpProcess                0x000080bb   Thumb Code     0  bb_rom_sym_m0.txt ABSOLUTE
    LL_master_conn_event                     0x000080bd   Thumb Code     0  bb_rom_sym_m0.txt ABSOLUTE
    LL_prdAdvTimerExpProcess                 0x0000826d   Thumb Code     0  bb_rom_sym_m0.txt ABSOLUTE
    LL_prdScanTimerExpProcess                0x00008271   Thumb Code     0  bb_rom_sym_m0.txt ABSOLUTE
    LL_set_default_conn_params               0x00008275   Thumb Code     0  bb_rom_sym_m0.txt ABSOLUTE
    LL_slave_conn_event                      0x000082b9   Thumb Code     0  bb_rom_sym_m0.txt ABSOLUTE
    NMI_Handler                              0x00008481   Thumb Code     0  bb_rom_sym_m0.txt ABSOLUTE
    PendSV_Handler                           0x000084cd   Thumb Code     0  bb_rom_sym_m0.txt ABSOLUTE
    TIM1_IRQHandler                          0x00008545   Thumb Code     0  bb_rom_sym_m0.txt ABSOLUTE
    WaitRTCCount                             0x00008901   Thumb Code     0  bb_rom_sym_m0.txt ABSOLUTE
    __ARM_common_switch8                     0x00008961   Thumb Code     0  bb_rom_sym_m0.txt ABSOLUTE
    _spif_read_status_reg                    0x0000961d   Thumb Code     0  bb_rom_sym_m0.txt ABSOLUTE
    _spif_wait_nobusy                        0x00009645   Thumb Code     0  bb_rom_sym_m0.txt ABSOLUTE
    app_sleep_process                        0x00009769   Thumb Code     0  bb_rom_sym_m0.txt ABSOLUTE
    app_wakeup_process                       0x00009779   Thumb Code     0  bb_rom_sym_m0.txt ABSOLUTE
    ate_fun_test                             0x00009789   Thumb Code     0  bb_rom_sym_m0.txt ABSOLUTE
    ate_sleep_process                        0x00009d11   Thumb Code     0  bb_rom_sym_m0.txt ABSOLUTE
    ate_wakeup_process                       0x0000a121   Thumb Code     0  bb_rom_sym_m0.txt ABSOLUTE
    bit_to_byte                              0x0000a1e9   Thumb Code     0  bb_rom_sym_m0.txt ABSOLUTE
    ble_crc24_gen                            0x0000a201   Thumb Code     0  bb_rom_sym_m0.txt ABSOLUTE
    boot_init                                0x0000a361   Thumb Code     0  bb_rom_sym_m0.txt ABSOLUTE
    boot_init0                               0x0000a379   Thumb Code     0  bb_rom_sym_m0.txt ABSOLUTE
    boot_m0                                  0x0000a3c1   Thumb Code     0  bb_rom_sym_m0.txt ABSOLUTE
    byte_to_bit                              0x0000a535   Thumb Code     0  bb_rom_sym_m0.txt ABSOLUTE
    calculate_whiten_seed                    0x0000a549   Thumb Code     0  bb_rom_sym_m0.txt ABSOLUTE
    clear_timer                              0x0000a5c1   Thumb Code     0  bb_rom_sym_m0.txt ABSOLUTE
    clear_timer_int                          0x0000a5cb   Thumb Code     0  bb_rom_sym_m0.txt ABSOLUTE
    clk_get_pclk                             0x0000a5d1   Thumb Code     0  bb_rom_sym_m0.txt ABSOLUTE
    clk_init                                 0x0000a5ed   Thumb Code     0  bb_rom_sym_m0.txt ABSOLUTE
    clk_set_pclk_div                         0x0000a681   Thumb Code     0  bb_rom_sym_m0.txt ABSOLUTE
    clk_spif_ref_clk                         0x0000a6a1   Thumb Code     0  bb_rom_sym_m0.txt ABSOLUTE
    config_RTC                               0x0000a6f9   Thumb Code     0  bb_rom_sym_m0.txt ABSOLUTE
    config_RTC0                              0x0000a711   Thumb Code     0  bb_rom_sym_m0.txt ABSOLUTE
    rom_crc16                                0x0000a755   Thumb Code     0  bb_rom_sym_m0.txt ABSOLUTE
    debug_print                              0x0000a791   Thumb Code     0  bb_rom_sym_m0.txt ABSOLUTE
    disableSleep                             0x0000a921   Thumb Code     0  bb_rom_sym_m0.txt ABSOLUTE
    drv_disable_irq                          0x0000a975   Thumb Code     0  bb_rom_sym_m0.txt ABSOLUTE
    drv_enable_irq                           0x0000a99d   Thumb Code     0  bb_rom_sym_m0.txt ABSOLUTE
    drv_irq_init                             0x0000a9c9   Thumb Code     0  bb_rom_sym_m0.txt ABSOLUTE
    dwc_connect                              0x0000a9fd   Thumb Code     0  bb_rom_sym_m0.txt ABSOLUTE
    dwc_data_process                         0x0000aa35   Thumb Code     0  bb_rom_sym_m0.txt ABSOLUTE
    dwc_loop                                 0x0000abd1   Thumb Code     0  bb_rom_sym_m0.txt ABSOLUTE
    efuse_read                               0x0000ace1   Thumb Code     0  bb_rom_sym_m0.txt ABSOLUTE
    enableSleep                              0x0000aead   Thumb Code     0  bb_rom_sym_m0.txt ABSOLUTE
    enterSleepProcess                        0x0000aeb9   Thumb Code     0  bb_rom_sym_m0.txt ABSOLUTE
    enter_sleep_off_mode                     0x0000afa1   Thumb Code     0  bb_rom_sym_m0.txt ABSOLUTE
    enter_sleep_off_mode0                    0x0000afb9   Thumb Code     0  bb_rom_sym_m0.txt ABSOLUTE
    getMcuPrecisionCount                     0x0000afe9   Thumb Code     0  bb_rom_sym_m0.txt ABSOLUTE
    getPN23RandNumber                        0x0000aff5   Thumb Code     0  bb_rom_sym_m0.txt ABSOLUTE
    getRxBufferFree                          0x0000b01d   Thumb Code     0  bb_rom_sym_m0.txt ABSOLUTE
    getRxBufferSize                          0x0000b031   Thumb Code     0  bb_rom_sym_m0.txt ABSOLUTE
    getSleepMode                             0x0000b051   Thumb Code     0  bb_rom_sym_m0.txt ABSOLUTE
    getTxBufferFree                          0x0000b05d   Thumb Code     0  bb_rom_sym_m0.txt ABSOLUTE
    getTxBufferSize                          0x0000b071   Thumb Code     0  bb_rom_sym_m0.txt ABSOLUTE
    get_rx_read_ptr                          0x0000b0b1   Thumb Code     0  bb_rom_sym_m0.txt ABSOLUTE
    get_rx_write_ptr                         0x0000b0b9   Thumb Code     0  bb_rom_sym_m0.txt ABSOLUTE
    get_sleep_flag                           0x0000b0c1   Thumb Code     0  bb_rom_sym_m0.txt ABSOLUTE
    get_timer_count                          0x0000b0cd   Thumb Code     0  bb_rom_sym_m0.txt ABSOLUTE
    get_timer_int                            0x0000b0d1   Thumb Code     0  bb_rom_sym_m0.txt ABSOLUTE
    get_tx_read_ptr                          0x0000b0d9   Thumb Code     0  bb_rom_sym_m0.txt ABSOLUTE
    get_tx_write_ptr                         0x0000b0e1   Thumb Code     0  bb_rom_sym_m0.txt ABSOLUTE
    gpio_cfg_analog_io                       0x0000b0e9   Thumb Code     0  bb_rom_sym_m0.txt ABSOLUTE
    gpio_dir                                 0x0000b119   Thumb Code     0  bb_rom_sym_m0.txt ABSOLUTE
    gpio_fmux_control                        0x0000b15d   Thumb Code     0  bb_rom_sym_m0.txt ABSOLUTE
    gpio_fmux_set                            0x0000b179   Thumb Code     0  bb_rom_sym_m0.txt ABSOLUTE
    gpio_in_trigger                          0x0000b1b1   Thumb Code     0  bb_rom_sym_m0.txt ABSOLUTE
    gpio_init                                0x0000b219   Thumb Code     0  bb_rom_sym_m0.txt ABSOLUTE
    gpio_interrupt_set                       0x0000b22d   Thumb Code     0  bb_rom_sym_m0.txt ABSOLUTE
    gpio_pull_set                            0x0000b249   Thumb Code     0  bb_rom_sym_m0.txt ABSOLUTE
    gpio_read                                0x0000b291   Thumb Code     0  bb_rom_sym_m0.txt ABSOLUTE
    gpio_wakeup_set                          0x0000b2b5   Thumb Code     0  bb_rom_sym_m0.txt ABSOLUTE
    gpio_write                               0x0000b319   Thumb Code     0  bb_rom_sym_m0.txt ABSOLUTE
    hciInitEventMasks                        0x0000b52d   Thumb Code     0  bb_rom_sym_m0.txt ABSOLUTE
    isSleepAllow                             0x0000b555   Thumb Code     0  bb_rom_sym_m0.txt ABSOLUTE
    isTimer1Running                          0x0000b561   Thumb Code     0  bb_rom_sym_m0.txt ABSOLUTE
    isTimer4Running                          0x0000b571   Thumb Code     0  bb_rom_sym_m0.txt ABSOLUTE
    jump_area_init                           0x0000b581   Thumb Code     0  bb_rom_sym_m0.txt ABSOLUTE
    ll24BitTimeCompare                       0x0000b5a9   Thumb Code     0  bb_rom_sym_m0.txt ABSOLUTE
    llAdjSlaveLatencyValue                   0x0000b609   Thumb Code     0  bb_rom_sym_m0.txt ABSOLUTE
    llAllocConnId                            0x0000b629   Thumb Code     0  bb_rom_sym_m0.txt ABSOLUTE
    llAllocateSyncHandle                     0x0000b679   Thumb Code     0  bb_rom_sym_m0.txt ABSOLUTE
    llAtLeastTwoChans                        0x0000b6a9   Thumb Code     0  bb_rom_sym_m0.txt ABSOLUTE
    llCalcMaxScanTime                        0x0000b6ed   Thumb Code     0  bb_rom_sym_m0.txt ABSOLUTE
    llCalcScaFactor                          0x0000b745   Thumb Code     0  bb_rom_sym_m0.txt ABSOLUTE
    llCalcTimerDrift                         0x0000b76d   Thumb Code     0  bb_rom_sym_m0.txt ABSOLUTE
    llCheckForLstoDuringSL                   0x0000b7b1   Thumb Code     0  bb_rom_sym_m0.txt ABSOLUTE
    llCheckWhiteListUsage                    0x0000b7ed   Thumb Code     0  bb_rom_sym_m0.txt ABSOLUTE
    llConnCleanup                            0x0000b809   Thumb Code     0  bb_rom_sym_m0.txt ABSOLUTE
    llConnTerminate                          0x0000b839   Thumb Code     0  bb_rom_sym_m0.txt ABSOLUTE
    llConvertCtrlProcTimeoutToEvent          0x0000b87d   Thumb Code     0  bb_rom_sym_m0.txt ABSOLUTE
    llConvertLstoToEvent                     0x0000b899   Thumb Code     0  bb_rom_sym_m0.txt ABSOLUTE
    llDeleteSyncHandle                       0x0000b8bd   Thumb Code     0  bb_rom_sym_m0.txt ABSOLUTE
    llDequeueCtrlPkt                         0x0000b8ed   Thumb Code     0  bb_rom_sym_m0.txt ABSOLUTE
    llDequeueDataQ                           0x0000b929   Thumb Code     0  bb_rom_sym_m0.txt ABSOLUTE
    llEnqueueCtrlPkt                         0x0000b953   Thumb Code     0  bb_rom_sym_m0.txt ABSOLUTE
    llEnqueueDataQ                           0x0000b98b   Thumb Code     0  bb_rom_sym_m0.txt ABSOLUTE
    llEqAlreadyValidAddr                     0x0000b9b1   Thumb Code     0  bb_rom_sym_m0.txt ABSOLUTE
    llEqSynchWord                            0x0000b9b5   Thumb Code     0  bb_rom_sym_m0.txt ABSOLUTE
    llEqualBytes                             0x0000b9c9   Thumb Code     0  bb_rom_sym_m0.txt ABSOLUTE
    llEventDelta                             0x0000b9e9   Thumb Code     0  bb_rom_sym_m0.txt ABSOLUTE
    llEventInRange                           0x0000b9fd   Thumb Code     0  bb_rom_sym_m0.txt ABSOLUTE
    llGenerateCRC                            0x0000ba1b   Thumb Code     0  bb_rom_sym_m0.txt ABSOLUTE
    llGenerateValidAccessAddr                0x0000ba3d   Thumb Code     0  bb_rom_sym_m0.txt ABSOLUTE
    llGetNextAdvChn                          0x0000ba6d   Thumb Code     0  bb_rom_sym_m0.txt ABSOLUTE
    llGetNextAuxAdvChn                       0x0000bac1   Thumb Code     0  bb_rom_sym_m0.txt ABSOLUTE
    llGetNextDataChan                        0x0000bae5   Thumb Code     0  bb_rom_sym_m0.txt ABSOLUTE
    llGetNextDataChanCSA2                    0x0000bb23   Thumb Code     0  bb_rom_sym_m0.txt ABSOLUTE
    llGtSixConsecZerosOrOnes                 0x0000bb81   Thumb Code     0  bb_rom_sym_m0.txt ABSOLUTE
    llGtTwentyFourTransitions                0x0000bbb3   Thumb Code     0  bb_rom_sym_m0.txt ABSOLUTE
    llInitFeatureSet                         0x0000bbe5   Thumb Code     0  bb_rom_sym_m0.txt ABSOLUTE
    llInitFeatureSet2MPHY                    0x0000bc1d   Thumb Code     0  bb_rom_sym_m0.txt ABSOLUTE
    llInitFeatureSetCodedPHY                 0x0000bc45   Thumb Code     0  bb_rom_sym_m0.txt ABSOLUTE
    llInitFeatureSetDLE                      0x0000bc6d   Thumb Code     0  bb_rom_sym_m0.txt ABSOLUTE
    llLtTwoChangesInLastSixBits              0x0000bc89   Thumb Code     0  bb_rom_sym_m0.txt ABSOLUTE
    llMasterEvt_TaskEndOk                    0x0000bcb9   Thumb Code     0  bb_rom_sym_m0.txt ABSOLUTE
    llMemCopyDst                             0x0000be05   Thumb Code     0  bb_rom_sym_m0.txt ABSOLUTE
    llMemCopySrc                             0x0000be1b   Thumb Code     0  bb_rom_sym_m0.txt ABSOLUTE
    llOneBitSynchWordDiffer                  0x0000be35   Thumb Code     0  bb_rom_sym_m0.txt ABSOLUTE
    llPduLengthManagmentReset                0x0000be4d   Thumb Code     0  bb_rom_sym_m0.txt ABSOLUTE
    llPduLengthUpdate                        0x0000bf01   Thumb Code     0  bb_rom_sym_m0.txt ABSOLUTE
    llPendingUpdateParam                     0x0000c00d   Thumb Code     0  bb_rom_sym_m0.txt ABSOLUTE
    llPhyModeCtrlReset                       0x0000c051   Thumb Code     0  bb_rom_sym_m0.txt ABSOLUTE
    llPhyModeCtrlUpdateNotify                0x0000c0b9   Thumb Code     0  bb_rom_sym_m0.txt ABSOLUTE
    llProcessChanMap                         0x0000c185   Thumb Code     0  bb_rom_sym_m0.txt ABSOLUTE
    llProcessMasterControlPacket             0x0000c1d1   Thumb Code     0  bb_rom_sym_m0.txt ABSOLUTE
    llProcessMasterControlProcedures         0x0000c5b9   Thumb Code     0  bb_rom_sym_m0.txt ABSOLUTE
    llProcessRxData                          0x0000ca85   Thumb Code     0  bb_rom_sym_m0.txt ABSOLUTE
    llProcessSlaveControlPacket              0x0000cc31   Thumb Code     0  bb_rom_sym_m0.txt ABSOLUTE
    llProcessSlaveControlProcedures          0x0000d169   Thumb Code     0  bb_rom_sym_m0.txt ABSOLUTE
    llProcessTxData                          0x0000d4d1   Thumb Code     0  bb_rom_sym_m0.txt ABSOLUTE
    llProcessTxData0                         0x0000d4e9   Thumb Code     0  bb_rom_sym_m0.txt ABSOLUTE
    llReleaseAllConnId                       0x0000d55d   Thumb Code     0  bb_rom_sym_m0.txt ABSOLUTE
    llReleaseConnId                          0x0000d561   Thumb Code     0  bb_rom_sym_m0.txt ABSOLUTE
    llReplaceCtrlPkt                         0x0000d5f5   Thumb Code     0  bb_rom_sym_m0.txt ABSOLUTE
    llResetConnId                            0x0000d60d   Thumb Code     0  bb_rom_sym_m0.txt ABSOLUTE
    llResetRfCounters                        0x0000d6ed   Thumb Code     0  bb_rom_sym_m0.txt ABSOLUTE
    llSecAdvAllow                            0x0000d701   Thumb Code     0  bb_rom_sym_m0.txt ABSOLUTE
    llSetNextDataChan                        0x0000d769   Thumb Code     0  bb_rom_sym_m0.txt ABSOLUTE
    llSetNextPhyMode                         0x0000d839   Thumb Code     0  bb_rom_sym_m0.txt ABSOLUTE
    llSetupAdv                               0x0000d8a9   Thumb Code     0  bb_rom_sym_m0.txt ABSOLUTE
    llSetupAdvExtIndPDU                      0x0000d949   Thumb Code     0  bb_rom_sym_m0.txt ABSOLUTE
    llSetupAuxAdvIndPDU                      0x0000db4d   Thumb Code     0  bb_rom_sym_m0.txt ABSOLUTE
    llSetupAuxChainIndPDU                    0x0000dda1   Thumb Code     0  bb_rom_sym_m0.txt ABSOLUTE
    llSetupAuxConnectReqPDU                  0x0000df91   Thumb Code     0  bb_rom_sym_m0.txt ABSOLUTE
    llSetupAuxConnectRspPDU                  0x0000e025   Thumb Code     0  bb_rom_sym_m0.txt ABSOLUTE
    llSetupAuxScanRspPDU                     0x0000e09d   Thumb Code     0  bb_rom_sym_m0.txt ABSOLUTE
    llSetupAuxSyncIndPDU                     0x0000e109   Thumb Code     0  bb_rom_sym_m0.txt ABSOLUTE
    llSetupCTEReq                            0x0000e2c1   Thumb Code     0  bb_rom_sym_m0.txt ABSOLUTE
    llSetupCTERsp                            0x0000e38d   Thumb Code     0  bb_rom_sym_m0.txt ABSOLUTE
    llSetupConn                              0x0000e457   Thumb Code     0  bb_rom_sym_m0.txt ABSOLUTE
    llSetupDataLenghtReq                     0x0000e459   Thumb Code     0  bb_rom_sym_m0.txt ABSOLUTE
    llSetupDataLenghtRsp                     0x0000e4d5   Thumb Code     0  bb_rom_sym_m0.txt ABSOLUTE
    llSetupDirectedAdvEvt                    0x0000e551   Thumb Code     0  bb_rom_sym_m0.txt ABSOLUTE
    llSetupEncReq                            0x0000e6a1   Thumb Code     0  bb_rom_sym_m0.txt ABSOLUTE
    llSetupEncRsp                            0x0000e725   Thumb Code     0  bb_rom_sym_m0.txt ABSOLUTE
    llSetupExtAdvEvent                       0x0000e7b1   Thumb Code     0  bb_rom_sym_m0.txt ABSOLUTE
    llSetupExtInit                           0x0000eb09   Thumb Code     0  bb_rom_sym_m0.txt ABSOLUTE
    llSetupExtScan                           0x0000eb81   Thumb Code     0  bb_rom_sym_m0.txt ABSOLUTE
    llSetupFeatureSetReq                     0x0000ec01   Thumb Code     0  bb_rom_sym_m0.txt ABSOLUTE
    llSetupFeatureSetRsp                     0x0000ec63   Thumb Code     0  bb_rom_sym_m0.txt ABSOLUTE
    llSetupInit                              0x0000ecc1   Thumb Code     0  bb_rom_sym_m0.txt ABSOLUTE
    llSetupNextMasterEvent                   0x0000ed39   Thumb Code     0  bb_rom_sym_m0.txt ABSOLUTE
    llSetupNextSlaveEvent                    0x0000ede1   Thumb Code     0  bb_rom_sym_m0.txt ABSOLUTE
    llSetupNonConnectableAdvEvt              0x0000ef65   Thumb Code     0  bb_rom_sym_m0.txt ABSOLUTE
    llSetupPauseEncReq                       0x0000f075   Thumb Code     0  bb_rom_sym_m0.txt ABSOLUTE
    llSetupPauseEncRsp                       0x0000f0c5   Thumb Code     0  bb_rom_sym_m0.txt ABSOLUTE
    llSetupPhyReq                            0x0000f121   Thumb Code     0  bb_rom_sym_m0.txt ABSOLUTE
    llSetupPhyRsp                            0x0000f177   Thumb Code     0  bb_rom_sym_m0.txt ABSOLUTE
    llSetupPhyUpdateInd                      0x0000f1cd   Thumb Code     0  bb_rom_sym_m0.txt ABSOLUTE
    llSetupPrdAdvEvent                       0x0000f239   Thumb Code     0  bb_rom_sym_m0.txt ABSOLUTE
    llSetupPrdScan                           0x0000f3b9   Thumb Code     0  bb_rom_sym_m0.txt ABSOLUTE
    llSetupRejectExtInd                      0x0000f44d   Thumb Code     0  bb_rom_sym_m0.txt ABSOLUTE
    llSetupRejectInd                         0x0000f479   Thumb Code     0  bb_rom_sym_m0.txt ABSOLUTE
    llSetupScan                              0x0000f4a5   Thumb Code     0  bb_rom_sym_m0.txt ABSOLUTE
    llSetupScanInit                          0x0000f54d   Thumb Code     0  bb_rom_sym_m0.txt ABSOLUTE
    llSetupScannableAdvEvt                   0x0000f55d   Thumb Code     0  bb_rom_sym_m0.txt ABSOLUTE
    llSetupSecAdvEvt                         0x0000f66d   Thumb Code     0  bb_rom_sym_m0.txt ABSOLUTE
    llSetupSecConnectableAdvEvt              0x0000f6e9   Thumb Code     0  bb_rom_sym_m0.txt ABSOLUTE
    llSetupSecInit                           0x0000f7c1   Thumb Code     0  bb_rom_sym_m0.txt ABSOLUTE
    llSetupSecNonConnectableAdvEvt           0x0000f875   Thumb Code     0  bb_rom_sym_m0.txt ABSOLUTE
    llSetupSecScan                           0x0000f94d   Thumb Code     0  bb_rom_sym_m0.txt ABSOLUTE
    llSetupSecScannableAdvEvt                0x0000fa19   Thumb Code     0  bb_rom_sym_m0.txt ABSOLUTE
    llSetupStartEncReq                       0x0000faf1   Thumb Code     0  bb_rom_sym_m0.txt ABSOLUTE
    llSetupSyncInfo                          0x0000fb59   Thumb Code     0  bb_rom_sym_m0.txt ABSOLUTE
    llSetupTermInd                           0x0000fc2d   Thumb Code     0  bb_rom_sym_m0.txt ABSOLUTE
    llSetupUndirectedAdvEvt                  0x0000fc91   Thumb Code     0  bb_rom_sym_m0.txt ABSOLUTE
    llSetupUnknownRsp                        0x0000fda5   Thumb Code     0  bb_rom_sym_m0.txt ABSOLUTE
    llSetupUpdateChanReq                     0x0000fdf9   Thumb Code     0  bb_rom_sym_m0.txt ABSOLUTE
    llSetupUpdateParamReq                    0x0000fe6d   Thumb Code     0  bb_rom_sym_m0.txt ABSOLUTE
    llSetupVersionIndReq                     0x0000ff05   Thumb Code     0  bb_rom_sym_m0.txt ABSOLUTE
    llSlaveEvt_TaskAbort                     0x0000ff79   Thumb Code     0  bb_rom_sym_m0.txt ABSOLUTE
    llSlaveEvt_TaskEndOk                     0x0000ff95   Thumb Code     0  bb_rom_sym_m0.txt ABSOLUTE
    llTrxNumAdaptiveConfig                   0x00010181   Thumb Code     0  bb_rom_sym_m0.txt ABSOLUTE
    llValidAccessAddr                        0x0001019b   Thumb Code     0  bb_rom_sym_m0.txt ABSOLUTE
    llWaitUs                                 0x000101e1   Thumb Code     0  bb_rom_sym_m0.txt ABSOLUTE
    llWriteTxData                            0x00010209   Thumb Code     0  bb_rom_sym_m0.txt ABSOLUTE
    ll_CalcRandomAddr                        0x0001028f   Thumb Code     0  bb_rom_sym_m0.txt ABSOLUTE
    ll_ResolveRandomAddrs                    0x000102cd   Thumb Code     0  bb_rom_sym_m0.txt ABSOLUTE
    ll_addTask                               0x00010315   Thumb Code     0  bb_rom_sym_m0.txt ABSOLUTE
    ll_add_adv_task                          0x00010445   Thumb Code     0  bb_rom_sym_m0.txt ABSOLUTE
    ll_add_adv_task_periodic                 0x00010461   Thumb Code     0  bb_rom_sym_m0.txt ABSOLUTE
    ll_adptive_adj_next_time                 0x0001047d   Thumb Code     0  bb_rom_sym_m0.txt ABSOLUTE
    ll_adptive_smart_window                  0x000104fd   Thumb Code     0  bb_rom_sym_m0.txt ABSOLUTE
    ll_adv_scheduler                         0x000105ad   Thumb Code     0  bb_rom_sym_m0.txt ABSOLUTE
    ll_adv_scheduler_periodic                0x000105c9   Thumb Code     0  bb_rom_sym_m0.txt ABSOLUTE
    ll_allocAuxAdvTimeSlot                   0x000105e5   Thumb Code     0  bb_rom_sym_m0.txt ABSOLUTE
    ll_allocAuxAdvTimeSlot_prd               0x00010679   Thumb Code     0  bb_rom_sym_m0.txt ABSOLUTE
    ll_debug_output                          0x00010719   Thumb Code     0  bb_rom_sym_m0.txt ABSOLUTE
    ll_deleteTask                            0x00010731   Thumb Code     0  bb_rom_sym_m0.txt ABSOLUTE
    ll_delete_adv_task                       0x00010765   Thumb Code     0  bb_rom_sym_m0.txt ABSOLUTE
    ll_delete_adv_task_periodic              0x00010781   Thumb Code     0  bb_rom_sym_m0.txt ABSOLUTE
    ll_ext_adv_schedule_next_event           0x0001079d   Thumb Code     0  bb_rom_sym_m0.txt ABSOLUTE
    ll_ext_init_schedule_next_event          0x000107c1   Thumb Code     0  bb_rom_sym_m0.txt ABSOLUTE
    ll_ext_scan_schedule_next_event          0x000107dd   Thumb Code     0  bb_rom_sym_m0.txt ABSOLUTE
    ll_generateExtAdvDid                     0x000107f9   Thumb Code     0  bb_rom_sym_m0.txt ABSOLUTE
    ll_generateTxBuffer                      0x00010801   Thumb Code     0  bb_rom_sym_m0.txt ABSOLUTE
    ll_getFirstAdvChn                        0x000109c1   Thumb Code     0  bb_rom_sym_m0.txt ABSOLUTE
    ll_getRPAListEntry                       0x000109cd   Thumb Code     0  bb_rom_sym_m0.txt ABSOLUTE
    ll_get_next_active_conn                  0x00010a39   Thumb Code     0  bb_rom_sym_m0.txt ABSOLUTE
    ll_get_next_timer                        0x00010aa1   Thumb Code     0  bb_rom_sym_m0.txt ABSOLUTE
    ll_hw_clr_irq                            0x00010add   Thumb Code     0  bb_rom_sym_m0.txt ABSOLUTE
    ll_hw_config                             0x00010aed   Thumb Code     0  bb_rom_sym_m0.txt ABSOLUTE
    ll_hw_get_anchor                         0x00010b6d   Thumb Code     0  bb_rom_sym_m0.txt ABSOLUTE
    ll_hw_get_fsm_status                     0x00010b79   Thumb Code     0  bb_rom_sym_m0.txt ABSOLUTE
    ll_hw_get_iq_RawSample                   0x00010b89   Thumb Code     0  bb_rom_sym_m0.txt ABSOLUTE
    ll_hw_get_irq_status                     0x00010bbd   Thumb Code     0  bb_rom_sym_m0.txt ABSOLUTE
    ll_hw_get_last_ack                       0x00010bcd   Thumb Code     0  bb_rom_sym_m0.txt ABSOLUTE
    ll_hw_get_loop_cycle                     0x00010be9   Thumb Code     0  bb_rom_sym_m0.txt ABSOLUTE
    ll_hw_get_loop_time                      0x00010bf5   Thumb Code     0  bb_rom_sym_m0.txt ABSOLUTE
    ll_hw_get_nAck                           0x00010c01   Thumb Code     0  bb_rom_sym_m0.txt ABSOLUTE
    ll_hw_get_rfifo_depth                    0x00010c11   Thumb Code     0  bb_rom_sym_m0.txt ABSOLUTE
    ll_hw_get_rfifo_info                     0x00010c25   Thumb Code     0  bb_rom_sym_m0.txt ABSOLUTE
    ll_hw_get_rxPkt_CrcErr_num               0x00010c45   Thumb Code     0  bb_rom_sym_m0.txt ABSOLUTE
    ll_hw_get_rxPkt_CrcOk_num                0x00010c55   Thumb Code     0  bb_rom_sym_m0.txt ABSOLUTE
    ll_hw_get_rxPkt_Total_num                0x00010c69   Thumb Code     0  bb_rom_sym_m0.txt ABSOLUTE
    ll_hw_get_rxPkt_num                      0x00010c79   Thumb Code     0  bb_rom_sym_m0.txt ABSOLUTE
    ll_hw_get_rxPkt_stats                    0x00010c85   Thumb Code     0  bb_rom_sym_m0.txt ABSOLUTE
    ll_hw_get_snNesn                         0x00010c9d   Thumb Code     0  bb_rom_sym_m0.txt ABSOLUTE
    ll_hw_get_tfifo_info                     0x00010cad   Thumb Code     0  bb_rom_sym_m0.txt ABSOLUTE
    ll_hw_get_tfifo_wrptr                    0x00010ccd   Thumb Code     0  bb_rom_sym_m0.txt ABSOLUTE
    ll_hw_get_tr_mode                        0x00010cdd   Thumb Code     0  bb_rom_sym_m0.txt ABSOLUTE
    ll_hw_get_txAck                          0x00010ced   Thumb Code     0  bb_rom_sym_m0.txt ABSOLUTE
    ll_hw_go                                 0x00010cf9   Thumb Code     0  bb_rom_sym_m0.txt ABSOLUTE
    ll_hw_ign_rfifo                          0x00010df9   Thumb Code     0  bb_rom_sym_m0.txt ABSOLUTE
    ll_hw_process_RTO                        0x00010e05   Thumb Code     0  bb_rom_sym_m0.txt ABSOLUTE
    ll_hw_read_rfifo                         0x00010e6d   Thumb Code     0  bb_rom_sym_m0.txt ABSOLUTE
    ll_hw_read_rfifo_pplus                   0x00010ee9   Thumb Code     0  bb_rom_sym_m0.txt ABSOLUTE
    ll_hw_read_rfifo_zb                      0x00010f51   Thumb Code     0  bb_rom_sym_m0.txt ABSOLUTE
    ll_hw_read_tfifo_packet                  0x00010fad   Thumb Code     0  bb_rom_sym_m0.txt ABSOLUTE
    ll_hw_read_tfifo_rtlp                    0x00010ff5   Thumb Code     0  bb_rom_sym_m0.txt ABSOLUTE
    ll_hw_rst_rfifo                          0x000110b1   Thumb Code     0  bb_rom_sym_m0.txt ABSOLUTE
    ll_hw_rst_tfifo                          0x000110e9   Thumb Code     0  bb_rom_sym_m0.txt ABSOLUTE
    ll_hw_set_ant_pattern                    0x000110f5   Thumb Code     0  bb_rom_sym_m0.txt ABSOLUTE
    ll_hw_set_ant_switch_mode                0x00011101   Thumb Code     0  bb_rom_sym_m0.txt ABSOLUTE
    ll_hw_set_ant_switch_timing              0x00011115   Thumb Code     0  bb_rom_sym_m0.txt ABSOLUTE
    ll_hw_set_crc_fmt                        0x0001112d   Thumb Code     0  bb_rom_sym_m0.txt ABSOLUTE
    ll_hw_set_cte_rxSupp                     0x0001113d   Thumb Code     0  bb_rom_sym_m0.txt ABSOLUTE
    ll_hw_set_cte_txSupp                     0x00011155   Thumb Code     0  bb_rom_sym_m0.txt ABSOLUTE
    ll_hw_set_empty_head                     0x00011169   Thumb Code     0  bb_rom_sym_m0.txt ABSOLUTE
    ll_hw_set_irq                            0x00011175   Thumb Code     0  bb_rom_sym_m0.txt ABSOLUTE
    ll_hw_set_loop_nack_num                  0x00011181   Thumb Code     0  bb_rom_sym_m0.txt ABSOLUTE
    ll_hw_set_loop_timeout                   0x0001118d   Thumb Code     0  bb_rom_sym_m0.txt ABSOLUTE
    ll_hw_set_pplus_pktfmt                   0x000111a1   Thumb Code     0  bb_rom_sym_m0.txt ABSOLUTE
    ll_hw_set_rtlp                           0x000111cd   Thumb Code     0  bb_rom_sym_m0.txt ABSOLUTE
    ll_hw_set_rtlp_1st                       0x0001121d   Thumb Code     0  bb_rom_sym_m0.txt ABSOLUTE
    ll_hw_set_rtx                            0x00011265   Thumb Code     0  bb_rom_sym_m0.txt ABSOLUTE
    ll_hw_set_rx_timeout                     0x00011279   Thumb Code     0  bb_rom_sym_m0.txt ABSOLUTE
    ll_hw_set_rx_timeout_1st                 0x00011285   Thumb Code     0  bb_rom_sym_m0.txt ABSOLUTE
    ll_hw_set_rx_tx_interval                 0x00011291   Thumb Code     0  bb_rom_sym_m0.txt ABSOLUTE
    ll_hw_set_srx                            0x000112a5   Thumb Code     0  bb_rom_sym_m0.txt ABSOLUTE
    ll_hw_set_stx                            0x000112b9   Thumb Code     0  bb_rom_sym_m0.txt ABSOLUTE
    ll_hw_set_tfifo_space                    0x000112cd   Thumb Code     0  bb_rom_sym_m0.txt ABSOLUTE
    ll_hw_set_timing                         0x000112e5   Thumb Code     0  bb_rom_sym_m0.txt ABSOLUTE
    ll_hw_set_trlp                           0x00011381   Thumb Code     0  bb_rom_sym_m0.txt ABSOLUTE
    ll_hw_set_trx                            0x000113c9   Thumb Code     0  bb_rom_sym_m0.txt ABSOLUTE
    ll_hw_set_trx_settle                     0x000113dd   Thumb Code     0  bb_rom_sym_m0.txt ABSOLUTE
    ll_hw_set_tx_rx_interval                 0x000113f1   Thumb Code     0  bb_rom_sym_m0.txt ABSOLUTE
    ll_hw_set_tx_rx_release                  0x00011405   Thumb Code     0  bb_rom_sym_m0.txt ABSOLUTE
    ll_hw_trigger                            0x00011421   Thumb Code     0  bb_rom_sym_m0.txt ABSOLUTE
    ll_hw_trx_settle_config                  0x00011445   Thumb Code     0  bb_rom_sym_m0.txt ABSOLUTE
    ll_hw_tx2rx_timing_config                0x00011489   Thumb Code     0  bb_rom_sym_m0.txt ABSOLUTE
    ll_hw_update                             0x000114dd   Thumb Code     0  bb_rom_sym_m0.txt ABSOLUTE
    ll_hw_update_rtlp_mode                   0x00011539   Thumb Code     0  bb_rom_sym_m0.txt ABSOLUTE
    ll_hw_update_trlp_mode                   0x00011579   Thumb Code     0  bb_rom_sym_m0.txt ABSOLUTE
    ll_hw_write_tfifo                        0x000115c1   Thumb Code     0  bb_rom_sym_m0.txt ABSOLUTE
    ll_isAddrInWhiteList                     0x00011649   Thumb Code     0  bb_rom_sym_m0.txt ABSOLUTE
    ll_isFirstAdvChn                         0x000116a9   Thumb Code     0  bb_rom_sym_m0.txt ABSOLUTE
    ll_isIrkAllZero                          0x000116c7   Thumb Code     0  bb_rom_sym_m0.txt ABSOLUTE
    ll_isLegacyAdv                           0x000116dd   Thumb Code     0  bb_rom_sym_m0.txt ABSOLUTE
    ll_parseExtHeader                        0x000116ed   Thumb Code     0  bb_rom_sym_m0.txt ABSOLUTE
    ll_prd_adv_schedule_next_event           0x000117a9   Thumb Code     0  bb_rom_sym_m0.txt ABSOLUTE
    ll_prd_scan_schedule_next_event          0x000117cd   Thumb Code     0  bb_rom_sym_m0.txt ABSOLUTE
    ll_processBasicIRQ                       0x000117e9   Thumb Code     0  bb_rom_sym_m0.txt ABSOLUTE
    ll_processExtAdvIRQ                      0x00013401   Thumb Code     0  bb_rom_sym_m0.txt ABSOLUTE
    ll_processExtInitIRQ                     0x00013405   Thumb Code     0  bb_rom_sym_m0.txt ABSOLUTE
    ll_processExtScanIRQ                     0x00013409   Thumb Code     0  bb_rom_sym_m0.txt ABSOLUTE
    ll_processMissMasterEvt                  0x0001340d   Thumb Code     0  bb_rom_sym_m0.txt ABSOLUTE
    ll_processMissSlaveEvt                   0x000134ed   Thumb Code     0  bb_rom_sym_m0.txt ABSOLUTE
    ll_processPrdAdvIRQ                      0x000135f5   Thumb Code     0  bb_rom_sym_m0.txt ABSOLUTE
    ll_processPrdScanIRQ                     0x000135f9   Thumb Code     0  bb_rom_sym_m0.txt ABSOLUTE
    ll_readLocalIRK                          0x000135fd   Thumb Code     0  bb_rom_sym_m0.txt ABSOLUTE
    ll_read_rxfifo                           0x000136c5   Thumb Code     0  bb_rom_sym_m0.txt ABSOLUTE
    ll_schedule_next_event                   0x00013761   Thumb Code     0  bb_rom_sym_m0.txt ABSOLUTE
    ll_scheduler                             0x00013771   Thumb Code     0  bb_rom_sym_m0.txt ABSOLUTE
    ll_updateAuxAdvTimeSlot                  0x00013a11   Thumb Code     0  bb_rom_sym_m0.txt ABSOLUTE
    ll_updateExtAdvRemainderTime             0x00013a39   Thumb Code     0  bb_rom_sym_m0.txt ABSOLUTE
    log_clr_putc                             0x00013ab9   Thumb Code     0  bb_rom_sym_m0.txt ABSOLUTE
    log_debug_level                          0x00013ac5   Thumb Code     0  bb_rom_sym_m0.txt ABSOLUTE
    log_get_debug_level                      0x00013ad9   Thumb Code     0  bb_rom_sym_m0.txt ABSOLUTE
    log_printf                               0x00013ae5   Thumb Code     0  bb_rom_sym_m0.txt ABSOLUTE
    log_set_putc                             0x00013b05   Thumb Code     0  bb_rom_sym_m0.txt ABSOLUTE
    log_vsprintf                             0x00013b11   Thumb Code     0  bb_rom_sym_m0.txt ABSOLUTE
    move_to_master_function                  0x00013f09   Thumb Code     0  bb_rom_sym_m0.txt ABSOLUTE
    move_to_slave_function                   0x0001406d   Thumb Code     0  bb_rom_sym_m0.txt ABSOLUTE
    osalAddTimer                             0x00014439   Thumb Code     0  bb_rom_sym_m0.txt ABSOLUTE
    osalDeleteTimer                          0x000144a9   Thumb Code     0  bb_rom_sym_m0.txt ABSOLUTE
    osalFindTimer                            0x000144b5   Thumb Code     0  bb_rom_sym_m0.txt ABSOLUTE
    osalTimeUpdate                           0x000144d5   Thumb Code     0  bb_rom_sym_m0.txt ABSOLUTE
    osalTimeUpdate1                          0x00014541   Thumb Code     0  bb_rom_sym_m0.txt ABSOLUTE
    osalTimerInit                            0x0001457d   Thumb Code     0  bb_rom_sym_m0.txt ABSOLUTE
    osalTimerUpdate                          0x00014589   Thumb Code     0  bb_rom_sym_m0.txt ABSOLUTE
    osal_CbTimerInit                         0x00014621   Thumb Code     0  bb_rom_sym_m0.txt ABSOLUTE
    osal_CbTimerProcessEvent                 0x00014641   Thumb Code     0  bb_rom_sym_m0.txt ABSOLUTE
    osal_CbTimerStart                        0x000146a9   Thumb Code     0  bb_rom_sym_m0.txt ABSOLUTE
    osal_CbTimerStop                         0x00014711   Thumb Code     0  bb_rom_sym_m0.txt ABSOLUTE
    osal_CbTimerUpdate                       0x00014751   Thumb Code     0  bb_rom_sym_m0.txt ABSOLUTE
    osal_ConvertUTCSecs                      0x000147a1   Thumb Code     0  bb_rom_sym_m0.txt ABSOLUTE
    osal_ConvertUTCTime                      0x00014841   Thumb Code     0  bb_rom_sym_m0.txt ABSOLUTE
    osal_GetSystemClock                      0x00014949   Thumb Code     0  bb_rom_sym_m0.txt ABSOLUTE
    osal_bm_adjust_header                    0x00014955   Thumb Code     0  bb_rom_sym_m0.txt ABSOLUTE
    osal_bm_adjust_tail                      0x0001497d   Thumb Code     0  bb_rom_sym_m0.txt ABSOLUTE
    osal_bm_alloc                            0x000149a9   Thumb Code     0  bb_rom_sym_m0.txt ABSOLUTE
    osal_bm_free                             0x000149d9   Thumb Code     0  bb_rom_sym_m0.txt ABSOLUTE
    osal_buffer_uint24                       0x00014a21   Thumb Code     0  bb_rom_sym_m0.txt ABSOLUTE
    osal_buffer_uint32                       0x00014a2f   Thumb Code     0  bb_rom_sym_m0.txt ABSOLUTE
    osal_build_uint16                        0x00014a41   Thumb Code     0  bb_rom_sym_m0.txt ABSOLUTE
    osal_build_uint32                        0x00014a4d   Thumb Code     0  bb_rom_sym_m0.txt ABSOLUTE
    osal_clear_event                         0x00014a89   Thumb Code     0  bb_rom_sym_m0.txt ABSOLUTE
    osal_getClock                            0x00014abd   Thumb Code     0  bb_rom_sym_m0.txt ABSOLUTE
    osal_get_timeoutEx                       0x00014ac9   Thumb Code     0  bb_rom_sym_m0.txt ABSOLUTE
    osal_init_system                         0x00014aed   Thumb Code     0  bb_rom_sym_m0.txt ABSOLUTE
    osal_isbufset                            0x00014b1d   Thumb Code     0  bb_rom_sym_m0.txt ABSOLUTE
    osal_mem_alloc                           0x00014b3d   Thumb Code     0  bb_rom_sym_m0.txt ABSOLUTE
    osal_mem_free                            0x00014c01   Thumb Code     0  bb_rom_sym_m0.txt ABSOLUTE
    osal_mem_init                            0x00014c25   Thumb Code     0  bb_rom_sym_m0.txt ABSOLUTE
    osal_mem_kick                            0x00014c8d   Thumb Code     0  bb_rom_sym_m0.txt ABSOLUTE
    osal_mem_set_heap                        0x00014cb5   Thumb Code     0  bb_rom_sym_m0.txt ABSOLUTE
    osal_memcmp                              0x00014ccd   Thumb Code     0  bb_rom_sym_m0.txt ABSOLUTE
    osal_memcpy                              0x00014ce9   Thumb Code     0  bb_rom_sym_m0.txt ABSOLUTE
    osal_memdup                              0x00014cf9   Thumb Code     0  bb_rom_sym_m0.txt ABSOLUTE
    osal_memset                              0x00014d15   Thumb Code     0  bb_rom_sym_m0.txt ABSOLUTE
    osal_msg_allocate                        0x00014d1d   Thumb Code     0  bb_rom_sym_m0.txt ABSOLUTE
    osal_msg_deallocate                      0x00014d43   Thumb Code     0  bb_rom_sym_m0.txt ABSOLUTE
    osal_msg_dequeue                         0x00014d65   Thumb Code     0  bb_rom_sym_m0.txt ABSOLUTE
    osal_msg_enqueue                         0x00014d91   Thumb Code     0  bb_rom_sym_m0.txt ABSOLUTE
    osal_msg_enqueue_max                     0x00014dc3   Thumb Code     0  bb_rom_sym_m0.txt ABSOLUTE
    osal_msg_extract                         0x00014e6d   Thumb Code     0  bb_rom_sym_m0.txt ABSOLUTE
    osal_msg_find                            0x00014e9d   Thumb Code     0  bb_rom_sym_m0.txt ABSOLUTE
    osal_msg_push                            0x00014ed1   Thumb Code     0  bb_rom_sym_m0.txt ABSOLUTE
    osal_msg_push_front                      0x00014eeb   Thumb Code     0  bb_rom_sym_m0.txt ABSOLUTE
    osal_msg_receive                         0x00014ef5   Thumb Code     0  bb_rom_sym_m0.txt ABSOLUTE
    osal_msg_send                            0x00014f59   Thumb Code     0  bb_rom_sym_m0.txt ABSOLUTE
    osal_next_timeout                        0x00014f7d   Thumb Code     0  bb_rom_sym_m0.txt ABSOLUTE
    osal_pwrmgr_device                       0x00014fa5   Thumb Code     0  bb_rom_sym_m0.txt ABSOLUTE
    osal_pwrmgr_init                         0x00014fb1   Thumb Code     0  bb_rom_sym_m0.txt ABSOLUTE
    osal_pwrmgr_powerconserve                0x00014fc1   Thumb Code     0  bb_rom_sym_m0.txt ABSOLUTE
    osal_pwrmgr_task_state                   0x000150f9   Thumb Code     0  bb_rom_sym_m0.txt ABSOLUTE
    osal_rand                                0x00015129   Thumb Code     0  bb_rom_sym_m0.txt ABSOLUTE
    osal_revmemcpy                           0x00015145   Thumb Code     0  bb_rom_sym_m0.txt ABSOLUTE
    osal_run_system                          0x00015159   Thumb Code     0  bb_rom_sym_m0.txt ABSOLUTE
    osal_self                                0x000151f5   Thumb Code     0  bb_rom_sym_m0.txt ABSOLUTE
    osal_setClock                            0x00015201   Thumb Code     0  bb_rom_sym_m0.txt ABSOLUTE
    osal_set_event                           0x0001520d   Thumb Code     0  bb_rom_sym_m0.txt ABSOLUTE
    osal_start_reload_timer                  0x00015259   Thumb Code     0  bb_rom_sym_m0.txt ABSOLUTE
    osal_start_system                        0x00015285   Thumb Code     0  bb_rom_sym_m0.txt ABSOLUTE
    osal_start_timerEx                       0x0001528b   Thumb Code     0  bb_rom_sym_m0.txt ABSOLUTE
    osal_stop_timerEx                        0x000152b3   Thumb Code     0  bb_rom_sym_m0.txt ABSOLUTE
    osal_strlen                              0x000152dd   Thumb Code     0  bb_rom_sym_m0.txt ABSOLUTE
    osal_timer_num_active                    0x000152e5   Thumb Code     0  bb_rom_sym_m0.txt ABSOLUTE
    phy_sec_app_key                          0x00015315   Thumb Code     0  bb_rom_sym_m0.txt ABSOLUTE
    phy_sec_decrypt                          0x0001531d   Thumb Code     0  bb_rom_sym_m0.txt ABSOLUTE
    phy_sec_efuse_lock                       0x0001532d   Thumb Code     0  bb_rom_sym_m0.txt ABSOLUTE
    phy_sec_encrypt                          0x00015339   Thumb Code     0  bb_rom_sym_m0.txt ABSOLUTE
    phy_sec_init                             0x00015349   Thumb Code     0  bb_rom_sym_m0.txt ABSOLUTE
    phy_sec_key_valid                        0x0001540d   Thumb Code     0  bb_rom_sym_m0.txt ABSOLUTE
    prog_process_data                        0x00015b19   Thumb Code     0  bb_rom_sym_m0.txt ABSOLUTE
    prog_uart_command                        0x00015c51   Thumb Code     0  bb_rom_sym_m0.txt ABSOLUTE
    prog_uart_fct_command                    0x00015c71   Thumb Code     0  bb_rom_sym_m0.txt ABSOLUTE
    prog_uart_handle                         0x00015c8d   Thumb Code     0  bb_rom_sym_m0.txt ABSOLUTE
    read_LL_remainder_time                   0x00015cbd   Thumb Code     0  bb_rom_sym_m0.txt ABSOLUTE
    read_current_fine_time                   0x00015cc9   Thumb Code     0  bb_rom_sym_m0.txt ABSOLUTE
    read_ll_adv_remainder_time               0x00015cf1   Thumb Code     0  bb_rom_sym_m0.txt ABSOLUTE
    reset_conn_buf                           0x00015cfd   Thumb Code     0  bb_rom_sym_m0.txt ABSOLUTE
    rom_board_init                           0x00016a09   Thumb Code     0  bb_rom_sym_m0.txt ABSOLUTE
    rtc_clear                                0x00016ab5   Thumb Code     0  bb_rom_sym_m0.txt ABSOLUTE
    rtc_config_prescale                      0x00016ad1   Thumb Code     0  bb_rom_sym_m0.txt ABSOLUTE
    rtc_get_counter                          0x00016b15   Thumb Code     0  bb_rom_sym_m0.txt ABSOLUTE
    rtc_start                                0x00016b25   Thumb Code     0  bb_rom_sym_m0.txt ABSOLUTE
    rtc_stop                                 0x00016b35   Thumb Code     0  bb_rom_sym_m0.txt ABSOLUTE
    setSleepMode                             0x00016b45   Thumb Code     0  bb_rom_sym_m0.txt ABSOLUTE
    set_access_address                       0x00016b51   Thumb Code     0  bb_rom_sym_m0.txt ABSOLUTE
    set_channel                              0x00016b5d   Thumb Code     0  bb_rom_sym_m0.txt ABSOLUTE
    set_crc_seed                             0x00016b9d   Thumb Code     0  bb_rom_sym_m0.txt ABSOLUTE
    set_gpio_pull_down_ate                   0x00016bb5   Thumb Code     0  bb_rom_sym_m0.txt ABSOLUTE
    set_gpio_pull_up_ate                     0x00016bcb   Thumb Code     0  bb_rom_sym_m0.txt ABSOLUTE
    set_int                                  0x00016be1   Thumb Code     0  bb_rom_sym_m0.txt ABSOLUTE
    set_max_length                           0x00016bed   Thumb Code     0  bb_rom_sym_m0.txt ABSOLUTE
    set_sleep_flag                           0x00016c01   Thumb Code     0  bb_rom_sym_m0.txt ABSOLUTE
    set_timer                                0x00016c2d   Thumb Code     0  bb_rom_sym_m0.txt ABSOLUTE
    set_whiten_seed                          0x00016cc9   Thumb Code     0  bb_rom_sym_m0.txt ABSOLUTE
    spif_cmd                                 0x00016d49   Thumb Code     0  bb_rom_sym_m0.txt ABSOLUTE
    spif_config                              0x00016dc5   Thumb Code     0  bb_rom_sym_m0.txt ABSOLUTE
    spif_erase_all                           0x00016ea1   Thumb Code     0  bb_rom_sym_m0.txt ABSOLUTE
    spif_erase_block64                       0x00016ed1   Thumb Code     0  bb_rom_sym_m0.txt ABSOLUTE
    spif_erase_chip                          0x00016f55   Thumb Code     0  bb_rom_sym_m0.txt ABSOLUTE
    spif_erase_sector                        0x00016fa9   Thumb Code     0  bb_rom_sym_m0.txt ABSOLUTE
    spif_flash_size                          0x00017029   Thumb Code     0  bb_rom_sym_m0.txt ABSOLUTE
    spif_flash_status_reg_0                  0x0001703d   Thumb Code     0  bb_rom_sym_m0.txt ABSOLUTE
    spif_flash_status_reg_1                  0x00017047   Thumb Code     0  bb_rom_sym_m0.txt ABSOLUTE
    spif_init                                0x00017051   Thumb Code     0  bb_rom_sym_m0.txt ABSOLUTE
    spif_rddata                              0x0001713d   Thumb Code     0  bb_rom_sym_m0.txt ABSOLUTE
    spif_read                                0x00017165   Thumb Code     0  bb_rom_sym_m0.txt ABSOLUTE
    spif_read_dma                            0x0001717d   Thumb Code     0  bb_rom_sym_m0.txt ABSOLUTE
    spif_release_deep_sleep                  0x000172cd   Thumb Code     0  bb_rom_sym_m0.txt ABSOLUTE
    spif_set_deep_sleep                      0x00017349   Thumb Code     0  bb_rom_sym_m0.txt ABSOLUTE
    spif_wrdata                              0x0001736d   Thumb Code     0  bb_rom_sym_m0.txt ABSOLUTE
    spif_write                               0x00017395   Thumb Code     0  bb_rom_sym_m0.txt ABSOLUTE
    spif_write_dma                           0x0001744d   Thumb Code     0  bb_rom_sym_m0.txt ABSOLUTE
    spif_write_protect                       0x000174f9   Thumb Code     0  bb_rom_sym_m0.txt ABSOLUTE
    sram_ret_patch                           0x00017591   Thumb Code     0  bb_rom_sym_m0.txt ABSOLUTE
    update_rx_read_ptr                       0x00017609   Thumb Code     0  bb_rom_sym_m0.txt ABSOLUTE
    update_rx_write_ptr                      0x00017635   Thumb Code     0  bb_rom_sym_m0.txt ABSOLUTE
    update_tx_read_ptr                       0x00017659   Thumb Code     0  bb_rom_sym_m0.txt ABSOLUTE
    update_tx_write_ptr                      0x00017685   Thumb Code     0  bb_rom_sym_m0.txt ABSOLUTE
    wakeupProcess                            0x000176a9   Thumb Code     0  bb_rom_sym_m0.txt ABSOLUTE
    wakeupProcess0                           0x000176c5   Thumb Code     0  bb_rom_sym_m0.txt ABSOLUTE
    wakeup_init                              0x000178a5   Thumb Code     0  bb_rom_sym_m0.txt ABSOLUTE
    wakeup_init0                             0x000178bd   Thumb Code     0  bb_rom_sym_m0.txt ABSOLUTE
    zigbee_crc16_gen                         0x0001798d   Thumb Code     0  bb_rom_sym_m0.txt ABSOLUTE
    supportedCmdsTable                       0x00017c00   Data           0  bb_rom_sym_m0.txt ABSOLUTE
    hciCmdTable                              0x00017c44   Data           0  bb_rom_sym_m0.txt ABSOLUTE
    SCA                                      0x00017c4c   Data           0  bb_rom_sym_m0.txt ABSOLUTE
    jump_table_base                          0x1fff0000   Data        1024  jump_table.o(jump_table_mem_area)
    global_config                            0x1fff0400   Data        1024  jump_table.o(global_config_area)
    hclk_per_us                              0x1fff0818   Data           0  bb_rom_sym_m0.txt ABSOLUTE
    hclk_per_us_shift                        0x1fff081c   Data           0  bb_rom_sym_m0.txt ABSOLUTE
    s_prog_time_save                         0x1fff0828   Data           0  bb_rom_sym_m0.txt ABSOLUTE
    s_prog_timeout                           0x1fff082c   Data           0  bb_rom_sym_m0.txt ABSOLUTE
    DFL_ENTRY_BASE                           0x1fff0830   Data           0  bb_rom_sym_m0.txt ABSOLUTE
    receive_timeout_flag                     0x1fff0850   Data           0  bb_rom_sym_m0.txt ABSOLUTE
    osal_sys_tick                            0x1fff0860   Data           0  bb_rom_sym_m0.txt ABSOLUTE
    g_timer4_irq_pending_time                0x1fff0864   Data           0  bb_rom_sym_m0.txt ABSOLUTE
    g_hclk                                   0x1fff0874   Data           0  bb_rom_sym_m0.txt ABSOLUTE
    m_in_critical_region                     0x1fff0878   Data           0  bb_rom_sym_m0.txt ABSOLUTE
    s_rom_debug_level                        0x1fff0888   Data           0  bb_rom_sym_m0.txt ABSOLUTE
    s_spif_ctx                               0x1fff0894   Data           0  bb_rom_sym_m0.txt ABSOLUTE
    osal_qHead                               0x1fff08b8   Data           0  bb_rom_sym_m0.txt ABSOLUTE
    baseTaskID                               0x1fff08c0   Data           0  bb_rom_sym_m0.txt ABSOLUTE
    OSAL_timeSeconds                         0x1fff08cc   Data           0  bb_rom_sym_m0.txt ABSOLUTE
    ll_remain_time                           0x1fff08e4   Data           0  bb_rom_sym_m0.txt ABSOLUTE
    pwrmgr_attribute                         0x1fff08e8   Data           0  bb_rom_sym_m0.txt ABSOLUTE
    timerHead                                0x1fff08f0   Data           0  bb_rom_sym_m0.txt ABSOLUTE
    hciPTMenabled                            0x1fff08f8   Data           0  bb_rom_sym_m0.txt ABSOLUTE
    ctrlToHostEnable                         0x1fff08f9   Data           0  bb_rom_sym_m0.txt ABSOLUTE
    numHostBufs                              0x1fff08fa   Data           0  bb_rom_sym_m0.txt ABSOLUTE
    hciCtrlCmdToken                          0x1fff08fc   Data           0  bb_rom_sym_m0.txt ABSOLUTE
    bleEvtMask                               0x1fff0900   Data           0  bb_rom_sym_m0.txt ABSOLUTE
    pHciEvtMask                              0x1fff0904   Data           0  bb_rom_sym_m0.txt ABSOLUTE
    hciTaskID                                0x1fff090c   Data           0  bb_rom_sym_m0.txt ABSOLUTE
    hciTestTaskID                            0x1fff090d   Data           0  bb_rom_sym_m0.txt ABSOLUTE
    hciGapTaskID                             0x1fff090e   Data           0  bb_rom_sym_m0.txt ABSOLUTE
    hciL2capTaskID                           0x1fff090f   Data           0  bb_rom_sym_m0.txt ABSOLUTE
    hciSmpTaskID                             0x1fff0910   Data           0  bb_rom_sym_m0.txt ABSOLUTE
    hciExtTaskID                             0x1fff0911   Data           0  bb_rom_sym_m0.txt ABSOLUTE
    g_maxConnNum                             0x1fff0914   Data           0  bb_rom_sym_m0.txt ABSOLUTE
    g_maxPktPerEventTx                       0x1fff0915   Data           0  bb_rom_sym_m0.txt ABSOLUTE
    g_maxPktPerEventRx                       0x1fff0916   Data           0  bb_rom_sym_m0.txt ABSOLUTE
    g_blePktVersion                          0x1fff0917   Data           0  bb_rom_sym_m0.txt ABSOLUTE
    g_llRlEnable                             0x1fff0918   Data           0  bb_rom_sym_m0.txt ABSOLUTE
    g_llScanMode                             0x1fff0919   Data           0  bb_rom_sym_m0.txt ABSOLUTE
    g_llAdvMode                              0x1fff091a   Data           0  bb_rom_sym_m0.txt ABSOLUTE
    LL_TaskID                                0x1fff091b   Data           0  bb_rom_sym_m0.txt ABSOLUTE
    llState                                  0x1fff091c   Data           0  bb_rom_sym_m0.txt ABSOLUTE
    numComplPkts                             0x1fff091d   Data           0  bb_rom_sym_m0.txt ABSOLUTE
    numComplPktsLimit                        0x1fff091e   Data           0  bb_rom_sym_m0.txt ABSOLUTE
    fastTxRespTime                           0x1fff091f   Data           0  bb_rom_sym_m0.txt ABSOLUTE
    g_llWlDeviceNum                          0x1fff0920   Data           0  bb_rom_sym_m0.txt ABSOLUTE
    g_llRlDeviceNum                          0x1fff0921   Data           0  bb_rom_sym_m0.txt ABSOLUTE
    rxFifoFlowCtrl                           0x1fff0922   Data           0  bb_rom_sym_m0.txt ABSOLUTE
    llSecondaryState                         0x1fff0923   Data           0  bb_rom_sym_m0.txt ABSOLUTE
    g_extAdvNumber                           0x1fff0924   Data           0  bb_rom_sym_m0.txt ABSOLUTE
    g_perioAdvNumber                         0x1fff0925   Data           0  bb_rom_sym_m0.txt ABSOLUTE
    g_schExtAdvNum                           0x1fff0926   Data           0  bb_rom_sym_m0.txt ABSOLUTE
    g_currentExtAdv                          0x1fff0927   Data           0  bb_rom_sym_m0.txt ABSOLUTE
    g_schExtAdvNum_periodic                  0x1fff0928   Data           0  bb_rom_sym_m0.txt ABSOLUTE
    g_currentExtAdv_periodic                 0x1fff0929   Data           0  bb_rom_sym_m0.txt ABSOLUTE
    g_llRlTimeout                            0x1fff092c   Data           0  bb_rom_sym_m0.txt ABSOLUTE
    g_advSetMaximumLen                       0x1fff0930   Data           0  bb_rom_sym_m0.txt ABSOLUTE
    conn_param                               0x1fff0934   Data           0  bb_rom_sym_m0.txt ABSOLUTE
    g_pExtendedAdvInfo                       0x1fff0938   Data           0  bb_rom_sym_m0.txt ABSOLUTE
    g_pPeriodicAdvInfo                       0x1fff093c   Data           0  bb_rom_sym_m0.txt ABSOLUTE
    g_pLLcteISample                          0x1fff0940   Data           0  bb_rom_sym_m0.txt ABSOLUTE
    g_pLLcteQSample                          0x1fff0944   Data           0  bb_rom_sym_m0.txt ABSOLUTE
    g_llHdcDirAdvTime                        0x1fff0948   Data           0  bb_rom_sym_m0.txt ABSOLUTE
    g_pAdvSchInfo                            0x1fff094c   Data           0  bb_rom_sym_m0.txt ABSOLUTE
    g_advPerSlotTick                         0x1fff0950   Data           0  bb_rom_sym_m0.txt ABSOLUTE
    g_advSlotPeriodic                        0x1fff0954   Data           0  bb_rom_sym_m0.txt ABSOLUTE
    g_pAdvSchInfo_periodic                   0x1fff0958   Data           0  bb_rom_sym_m0.txt ABSOLUTE
    g_timerExpiryTick                        0x1fff095c   Data           0  bb_rom_sym_m0.txt ABSOLUTE
    chanMapUpdate                            0x1fff0960   Data           0  bb_rom_sym_m0.txt ABSOLUTE
    ownPublicAddr                            0x1fff0965   Data           0  bb_rom_sym_m0.txt ABSOLUTE
    ownRandomAddr                            0x1fff096b   Data           0  bb_rom_sym_m0.txt ABSOLUTE
    verInfo                                  0x1fff0972   Data           0  bb_rom_sym_m0.txt ABSOLUTE
    peerInfo                                 0x1fff0978   Data           0  bb_rom_sym_m0.txt ABSOLUTE
    g_currentAdvTimer                        0x1fff0980   Data           0  bb_rom_sym_m0.txt ABSOLUTE
    g_currentTimerTask                       0x1fff0984   Data           0  bb_rom_sym_m0.txt ABSOLUTE
    g_adv_taskID                             0x1fff0988   Data           0  bb_rom_sym_m0.txt ABSOLUTE
    g_conn_taskID                            0x1fff0989   Data           0  bb_rom_sym_m0.txt ABSOLUTE
    g_smartWindowRTOCnt                      0x1fff098a   Data           0  bb_rom_sym_m0.txt ABSOLUTE
    isPeerRpaStore                           0x1fff098b   Data           0  bb_rom_sym_m0.txt ABSOLUTE
    g_same_rf_channel_flag                   0x1fff098c   Data           0  bb_rom_sym_m0.txt ABSOLUTE
    g_currentPeerAddrType                    0x1fff098d   Data           0  bb_rom_sym_m0.txt ABSOLUTE
    g_currentLocalAddrType                   0x1fff098e   Data           0  bb_rom_sym_m0.txt ABSOLUTE
    storeRpaListIndex                        0x1fff098f   Data           0  bb_rom_sym_m0.txt ABSOLUTE
    llTaskState                              0x1fff0990   Data           0  bb_rom_sym_m0.txt ABSOLUTE
    g_adv_taskEvent                          0x1fff0992   Data           0  bb_rom_sym_m0.txt ABSOLUTE
    g_conn_taskEvent                         0x1fff0994   Data           0  bb_rom_sym_m0.txt ABSOLUTE
    llWaitingIrq                             0x1fff0998   Data           0  bb_rom_sym_m0.txt ABSOLUTE
    ISR_entry_time                           0x1fff099c   Data           0  bb_rom_sym_m0.txt ABSOLUTE
    slave_conn_event_recv_delay              0x1fff09a0   Data           0  bb_rom_sym_m0.txt ABSOLUTE
    g_smartWindowLater                       0x1fff09a4   Data           0  bb_rom_sym_m0.txt ABSOLUTE
    g_smartWindowActiveCnt                   0x1fff09a8   Data           0  bb_rom_sym_m0.txt ABSOLUTE
    g_smartWindowPreAnchPoint                0x1fff09ac   Data           0  bb_rom_sym_m0.txt ABSOLUTE
    g_getPn23_cnt                            0x1fff09b0   Data           0  bb_rom_sym_m0.txt ABSOLUTE
    g_getPn23_seed                           0x1fff09b4   Data           0  bb_rom_sym_m0.txt ABSOLUTE
    llScanTime                               0x1fff09b8   Data           0  bb_rom_sym_m0.txt ABSOLUTE
    p_perStatsByChan                         0x1fff09bc   Data           0  bb_rom_sym_m0.txt ABSOLUTE
    LL_PLUS_AdvDataFilterCBack               0x1fff09c0   Data           0  bb_rom_sym_m0.txt ABSOLUTE
    LL_PLUS_ScanRequestFilterCBack           0x1fff09c4   Data           0  bb_rom_sym_m0.txt ABSOLUTE
    g_new_master_delta                       0x1fff09c8   Data           0  bb_rom_sym_m0.txt ABSOLUTE
    llScanT1                                 0x1fff09cc   Data           0  bb_rom_sym_m0.txt ABSOLUTE
    llCurrentScanChn                         0x1fff09d0   Data           0  bb_rom_sym_m0.txt ABSOLUTE
    g_currentLocalRpa                        0x1fff09d4   Data           0  bb_rom_sym_m0.txt ABSOLUTE
    g_currentPeerRpa                         0x1fff09da   Data           0  bb_rom_sym_m0.txt ABSOLUTE
    currentPeerRpa                           0x1fff09e0   Data           0  bb_rom_sym_m0.txt ABSOLUTE
    g_dle_taskID                             0x1fff09e6   Data           0  bb_rom_sym_m0.txt ABSOLUTE
    g_dle_taskEvent                          0x1fff09e8   Data           0  bb_rom_sym_m0.txt ABSOLUTE
    g_phyChg_taskID                          0x1fff09ea   Data           0  bb_rom_sym_m0.txt ABSOLUTE
    g_phyChg_taskEvent                       0x1fff09ec   Data           0  bb_rom_sym_m0.txt ABSOLUTE
    g_smartWindowSize                        0x1fff09f0   Data           0  bb_rom_sym_m0.txt ABSOLUTE
    g_smartWindowSizeNew                     0x1fff09f4   Data           0  bb_rom_sym_m0.txt ABSOLUTE
    g_smartWindowActive                      0x1fff09f8   Data           0  bb_rom_sym_m0.txt ABSOLUTE
    g_interAuxPduDuration                    0x1fff09fc   Data           0  bb_rom_sym_m0.txt ABSOLUTE
    connUpdateTimer                          0x1fff0a04   Data           0  bb_rom_sym_m0.txt ABSOLUTE
    sleep_flag                               0x1fff0a0c   Data           0  bb_rom_sym_m0.txt ABSOLUTE
    g_wakeup_rtc_tick                        0x1fff0a10   Data           0  bb_rom_sym_m0.txt ABSOLUTE
    g_counter_traking_avg                    0x1fff0a14   Data           0  bb_rom_sym_m0.txt ABSOLUTE
    g_TIM2_IRQ_TIM3_CurrCount                0x1fff0a18   Data           0  bb_rom_sym_m0.txt ABSOLUTE
    g_TIM2_IRQ_to_Sleep_DeltTick             0x1fff0a1c   Data           0  bb_rom_sym_m0.txt ABSOLUTE
    g_TIM2_IRQ_PendingTick                   0x1fff0a20   Data           0  bb_rom_sym_m0.txt ABSOLUTE
    g_osal_tick_trim                         0x1fff0a24   Data           0  bb_rom_sym_m0.txt ABSOLUTE
    g_osalTickTrim_mod                       0x1fff0a28   Data           0  bb_rom_sym_m0.txt ABSOLUTE
    rtc_mod_value                            0x1fff0a2c   Data           0  bb_rom_sym_m0.txt ABSOLUTE
    g_counter_traking_cnt                    0x1fff0a30   Data           0  bb_rom_sym_m0.txt ABSOLUTE
    sleep_tick                               0x1fff0a34   Data           0  bb_rom_sym_m0.txt ABSOLUTE
    counter_tracking                         0x1fff0a38   Data           0  bb_rom_sym_m0.txt ABSOLUTE
    forever_write                            0x1fff0a3c   Data           0  bb_rom_sym_m0.txt ABSOLUTE
    g_TIM2_wakeup_delay                      0x1fff0a40   Data           0  bb_rom_sym_m0.txt ABSOLUTE
    g_rfPhyTpCal0                            0x1fff0a44   Data           0  bb_rom_sym_m0.txt ABSOLUTE
    g_rfPhyTpCal1                            0x1fff0a45   Data           0  bb_rom_sym_m0.txt ABSOLUTE
    g_rfPhyTpCal0_2Mbps                      0x1fff0a46   Data           0  bb_rom_sym_m0.txt ABSOLUTE
    g_rfPhyTpCal1_2Mbps                      0x1fff0a47   Data           0  bb_rom_sym_m0.txt ABSOLUTE
    g_rfPhyTxPower                           0x1fff0a48   Data           0  bb_rom_sym_m0.txt ABSOLUTE
    g_rfPhyPktFmt                            0x1fff0a49   Data           0  bb_rom_sym_m0.txt ABSOLUTE
    g_system_clk                             0x1fff0a4a   Data           0  bb_rom_sym_m0.txt ABSOLUTE
    g_rfPhyClkSel                            0x1fff0a4b   Data           0  bb_rom_sym_m0.txt ABSOLUTE
    g_rxAdcClkSel                            0x1fff0a4c   Data           0  bb_rom_sym_m0.txt ABSOLUTE
    g_dtmModeType                            0x1fff0a4d   Data           0  bb_rom_sym_m0.txt ABSOLUTE
    g_dtmLength                              0x1fff0a4e   Data           0  bb_rom_sym_m0.txt ABSOLUTE
    g_dtmExtLen                              0x1fff0a4f   Data           0  bb_rom_sym_m0.txt ABSOLUTE
    g_dtmPKT                                 0x1fff0a50   Data           0  bb_rom_sym_m0.txt ABSOLUTE
    g_dtmTxPower                             0x1fff0a51   Data           0  bb_rom_sym_m0.txt ABSOLUTE
    g_dtmRssi                                0x1fff0a52   Data           0  bb_rom_sym_m0.txt ABSOLUTE
    g_dtmCarrSens                            0x1fff0a53   Data           0  bb_rom_sym_m0.txt ABSOLUTE
    g_dtmPktIntv                             0x1fff0a54   Data           0  bb_rom_sym_m0.txt ABSOLUTE
    g_dtmPktCount                            0x1fff0a56   Data           0  bb_rom_sym_m0.txt ABSOLUTE
    g_dtmRxCrcNum                            0x1fff0a58   Data           0  bb_rom_sym_m0.txt ABSOLUTE
    g_dtmRxTONum                             0x1fff0a5a   Data           0  bb_rom_sym_m0.txt ABSOLUTE
    g_dtmRsp                                 0x1fff0a5c   Data           0  bb_rom_sym_m0.txt ABSOLUTE
    g_dtmFoff                                0x1fff0a5e   Data           0  bb_rom_sym_m0.txt ABSOLUTE
    g_rfPhyRxDcIQ                            0x1fff0a60   Data           0  bb_rom_sym_m0.txt ABSOLUTE
    g_dtmTick                                0x1fff0a64   Data           0  bb_rom_sym_m0.txt ABSOLUTE
    g_rfPhyFreqOffSet                        0x1fff0a68   Data           0  bb_rom_sym_m0.txt ABSOLUTE
    g_rfPhyDtmCmd                            0x1fff0a69   Data           0  bb_rom_sym_m0.txt ABSOLUTE
    g_rfPhyDtmEvt                            0x1fff0a6b   Data           0  bb_rom_sym_m0.txt ABSOLUTE
    g_dtmCmd                                 0x1fff0a6d   Data           0  bb_rom_sym_m0.txt ABSOLUTE
    g_dtmFreq                                0x1fff0a6e   Data           0  bb_rom_sym_m0.txt ABSOLUTE
    g_dtmCtrl                                0x1fff0a6f   Data           0  bb_rom_sym_m0.txt ABSOLUTE
    g_dtmPara                                0x1fff0a70   Data           0  bb_rom_sym_m0.txt ABSOLUTE
    g_dtmEvt                                 0x1fff0a71   Data           0  bb_rom_sym_m0.txt ABSOLUTE
    g_dtmStatus                              0x1fff0a72   Data           0  bb_rom_sym_m0.txt ABSOLUTE
    g_dtmTpCalEnable                         0x1fff0a73   Data           0  bb_rom_sym_m0.txt ABSOLUTE
    g_dtmPerAutoIntv                         0x1fff0a74   Data           0  bb_rom_sym_m0.txt ABSOLUTE
    g_dtmAccessCode                          0x1fff0a78   Data           0  bb_rom_sym_m0.txt ABSOLUTE
    g_system_reset_cause                     0x1fff0a80   Data           0  bb_rom_sym_m0.txt ABSOLUTE
    cbTimers                                 0x1fff0afc   Data           0  bb_rom_sym_m0.txt ABSOLUTE
    g_llSleepContext                         0x1fff0b74   Data           0  bb_rom_sym_m0.txt ABSOLUTE
    syncInfo                                 0x1fff0b84   Data           0  bb_rom_sym_m0.txt ABSOLUTE
    scanSyncInfo                             0x1fff0b96   Data           0  bb_rom_sym_m0.txt ABSOLUTE
    adv_param                                0x1fff0ba6   Data           0  bb_rom_sym_m0.txt ABSOLUTE
    scanInfo                                 0x1fff0bbc   Data           0  bb_rom_sym_m0.txt ABSOLUTE
    initInfo                                 0x1fff0bd4   Data           0  bb_rom_sym_m0.txt ABSOLUTE
    extScanInfo                              0x1fff0be8   Data           0  bb_rom_sym_m0.txt ABSOLUTE
    extInitInfo                              0x1fff0c10   Data           0  bb_rom_sym_m0.txt ABSOLUTE
    g_llPeriodAdvSyncInfo                    0x1fff0c50   Data           0  bb_rom_sym_m0.txt ABSOLUTE
    g_ll_conn_ctx                            0x1fff0d30   Data           0  bb_rom_sym_m0.txt ABSOLUTE
    deviceFeatureSet                         0x1fff0e48   Data           0  bb_rom_sym_m0.txt ABSOLUTE
    g_llWhitelist                            0x1fff0e51   Data           0  bb_rom_sym_m0.txt ABSOLUTE
    g_llResolvinglist                        0x1fff0e89   Data           0  bb_rom_sym_m0.txt ABSOLUTE
    g_pmCounters                             0x1fff0ffc   Data           0  bb_rom_sym_m0.txt ABSOLUTE
    g_llPduLen                               0x1fff1084   Data           0  bb_rom_sym_m0.txt ABSOLUTE
    rfCounters                               0x1fff10e0   Data           0  bb_rom_sym_m0.txt ABSOLUTE
    ext_adv_hdr                              0x1fff10ec   Data           0  bb_rom_sym_m0.txt ABSOLUTE
    dataPkt                                  0x1fff1118   Data           0  bb_rom_sym_m0.txt ABSOLUTE
    cachedTRNGdata                           0x1fff1138   Data           0  bb_rom_sym_m0.txt ABSOLUTE
    whiten_seed                              0x1fff1144   Data           0  bb_rom_sym_m0.txt ABSOLUTE
    g_tx_adv_buf                             0x1fff116c   Data           0  bb_rom_sym_m0.txt ABSOLUTE
    g_tx_ext_adv_buf                         0x1fff1278   Data           0  bb_rom_sym_m0.txt ABSOLUTE
    tx_scanRsp_desc                          0x1fff1384   Data           0  bb_rom_sym_m0.txt ABSOLUTE
    g_rx_adv_buf                             0x1fff1490   Data           0  bb_rom_sym_m0.txt ABSOLUTE
    __Vectors                                0x1fff1838   Data           4  startup_armcm0.o(RESET)
    __Vectors_End                            0x1fff18f8   Data           0  startup_armcm0.o(RESET)
    __main                                   0x1fff18f9   Thumb Code     0  entry.o(.ARM.Collect$$$$00000000)
    _main_stk                                0x1fff18f9   Thumb Code     0  entry2.o(.ARM.Collect$$$$00000001)
    _main_scatterload                        0x1fff18fd   Thumb Code     0  entry5.o(.ARM.Collect$$$$00000004)
    __main_after_scatterload                 0x1fff1901   Thumb Code     0  entry5.o(.ARM.Collect$$$$00000004)
    _main_clock                              0x1fff1901   Thumb Code     0  entry7b.o(.ARM.Collect$$$$00000008)
    _main_cpp_init                           0x1fff1901   Thumb Code     0  entry8b.o(.ARM.Collect$$$$0000000A)
    _main_init                               0x1fff1901   Thumb Code     0  entry9a.o(.ARM.Collect$$$$0000000B)
    __rt_final_cpp                           0x1fff1909   Thumb Code     0  entry10a.o(.ARM.Collect$$$$0000000D)
    __rt_final_exit                          0x1fff1909   Thumb Code     0  entry11a.o(.ARM.Collect$$$$0000000F)
    hard_fault                               0x1fff190d   Thumb Code    40  jump_table.o(.emb_text)
    Reset_Handler                            0x1fff193d   Thumb Code     8  startup_armcm0.o(.text)
    SVC_Handler                              0x1fff1949   Thumb Code     2  startup_armcm0.o(.text)
    SysTick_Handler                          0x1fff194d   Thumb Code     2  startup_armcm0.o(.text)
    AACI_IRQHandler                          0x1fff194f   Thumb Code     0  startup_armcm0.o(.text)
    CAN_IRQHandler                           0x1fff194f   Thumb Code     0  startup_armcm0.o(.text)
    CHLCD_IRQHandler                         0x1fff194f   Thumb Code     0  startup_armcm0.o(.text)
    CLCD_IRQHandler                          0x1fff194f   Thumb Code     0  startup_armcm0.o(.text)
    CPU_CLCD_IRQHandler                      0x1fff194f   Thumb Code     0  startup_armcm0.o(.text)
    ENET_IRQHandler                          0x1fff194f   Thumb Code     0  startup_armcm0.o(.text)
    FLEXRAY_IRQHandler                       0x1fff194f   Thumb Code     0  startup_armcm0.o(.text)
    I2C_IRQHandler                           0x1fff194f   Thumb Code     0  startup_armcm0.o(.text)
    LIN_IRQHandler                           0x1fff194f   Thumb Code     0  startup_armcm0.o(.text)
    MCIA_IRQHandler                          0x1fff194f   Thumb Code     0  startup_armcm0.o(.text)
    MCIB_IRQHandler                          0x1fff194f   Thumb Code     0  startup_armcm0.o(.text)
    RTC_IRQHandler                           0x1fff194f   Thumb Code     0  startup_armcm0.o(.text)
    SPI_IRQHandler                           0x1fff194f   Thumb Code     0  startup_armcm0.o(.text)
    TIM0_IRQHandler                          0x1fff194f   Thumb Code     0  startup_armcm0.o(.text)
    TIM2_IRQHandler                          0x1fff194f   Thumb Code     0  startup_armcm0.o(.text)
    UART0_IRQHandler                         0x1fff194f   Thumb Code     0  startup_armcm0.o(.text)
    UART1_IRQHandler                         0x1fff194f   Thumb Code     0  startup_armcm0.o(.text)
    UART2_IRQHandler                         0x1fff194f   Thumb Code     0  startup_armcm0.o(.text)
    UART3_IRQHandler                         0x1fff194f   Thumb Code     0  startup_armcm0.o(.text)
    UART4_IRQHandler                         0x1fff194f   Thumb Code     0  startup_armcm0.o(.text)
    USBDC_IRQHandler                         0x1fff194f   Thumb Code     0  startup_armcm0.o(.text)
    USBHC_IRQHandler                         0x1fff194f   Thumb Code     0  startup_armcm0.o(.text)
    WDT_IRQHandler                           0x1fff194f   Thumb Code     0  startup_armcm0.o(.text)
    __aeabi_fadd                             0x1fff1959   Thumb Code   162  fadd.o(.text)
    __aeabi_fsub                             0x1fff19fb   Thumb Code     8  fadd.o(.text)
    __aeabi_frsub                            0x1fff1a03   Thumb Code     8  fadd.o(.text)
    __aeabi_fmul                             0x1fff1a0b   Thumb Code   122  fmul.o(.text)
    __ARM_scalbnf                            0x1fff1a85   Thumb Code    24  fscalb.o(.text)
    scalbnf                                  0x1fff1a85   Thumb Code     0  fscalb.o(.text)
    __aeabi_dmul                             0x1fff1a9d   Thumb Code   202  dmul.o(.text)
    __aeabi_ui2f                             0x1fff1b6d   Thumb Code    14  ffltui.o(.text)
    __aeabi_f2iz                             0x1fff1b7b   Thumb Code    50  ffixi.o(.text)
    __aeabi_f2d                              0x1fff1bad   Thumb Code    40  f2d.o(.text)
    __aeabi_d2f                              0x1fff1bd5   Thumb Code    56  d2f.o(.text)
    __I$use$fp                               0x1fff1c0d   Thumb Code     0  iusefp.o(.text)
    _float_round                             0x1fff1c0d   Thumb Code    16  fepilogue.o(.text)
    _float_epilogue                          0x1fff1c1d   Thumb Code   114  fepilogue.o(.text)
    _double_round                            0x1fff1c8f   Thumb Code    26  depilogue.o(.text)
    _double_epilogue                         0x1fff1ca9   Thumb Code   164  depilogue.o(.text)
    __scatterload                            0x1fff1d4d   Thumb Code    28  init.o(.text)
    __scatterload_rt2                        0x1fff1d4d   Thumb Code     0  init.o(.text)
    __aeabi_llsl                             0x1fff1d71   Thumb Code    32  llshl.o(.text)
    _ll_shift_l                              0x1fff1d71   Thumb Code     0  llshl.o(.text)
    __aeabi_llsr                             0x1fff1d91   Thumb Code    34  llushr.o(.text)
    _ll_ushift_r                             0x1fff1d91   Thumb Code     0  llushr.o(.text)
    __decompress                             0x1fff1db3   Thumb Code     0  __dczerorl2.o(.text)
    __decompress1                            0x1fff1db3   Thumb Code    86  __dczerorl2.o(.text)
    Long Thumb to Thumb Veneer to enableSleep 0x1fff1e09   Thumb Code    12  anon$$obj.o(Veneer$$Code)
    Long Thumb to Thumb Veneer to setSleepMode 0x1fff1e15   Thumb Code    12  anon$$obj.o(Veneer$$Code)
    Long Thumb to Thumb Veneer to WaitRTCCount 0x1fff1e21   Thumb Code    12  anon$$obj.o(Veneer$$Code)
    Long Thumb to Thumb Veneer to LL_ENC_AES128_Encrypt 0x1fff1e2d   Thumb Code    12  anon$$obj.o(Veneer$$Code)
    Long Thumb to Thumb Veneer to osal_memcpy 0x1fff1e39   Thumb Code    12  anon$$obj.o(Veneer$$Code)
    Long Thumb to Thumb Veneer to read_current_fine_time 0x1fff1e45   Thumb Code    12  anon$$obj.o(Veneer$$Code)
    Long Thumb to Thumb Veneer to LL_ENC_AES128_Encrypt0 0x1fff1e51   Thumb Code    12  anon$$obj.o(Veneer$$Code)
    Long Thumb to Thumb Veneer to LL_ENC_LoadKey 0x1fff1e5d   Thumb Code    12  anon$$obj.o(Veneer$$Code)
    Long Thumb to Thumb Veneer to LL_ENC_GenerateNonce 0x1fff1e69   Thumb Code    12  anon$$obj.o(Veneer$$Code)
    Long Thumb to Thumb Veneer to __aeabi_uread4 0x1fff1e75   Thumb Code    12  anon$$obj.o(Veneer$$Code)
    Long Thumb to Thumb Veneer to ll_debug_output 0x1fff1e81   Thumb Code    12  anon$$obj.o(Veneer$$Code)
    Long Thumb to Thumb Veneer to ll_hw_get_irq_status 0x1fff1e8d   Thumb Code    12  anon$$obj.o(Veneer$$Code)
    Long Thumb to Thumb Veneer to ll_hw_get_tr_mode 0x1fff1e99   Thumb Code    12  anon$$obj.o(Veneer$$Code)
    Long Thumb to Thumb Veneer to ll_hw_clr_irq 0x1fff1ea5   Thumb Code    12  anon$$obj.o(Veneer$$Code)
    Long Thumb to Thumb Veneer to ll_processExtAdvIRQ 0x1fff1eb1   Thumb Code    12  anon$$obj.o(Veneer$$Code)
    Long Thumb to Thumb Veneer to ll_processExtScanIRQ 0x1fff1ebd   Thumb Code    12  anon$$obj.o(Veneer$$Code)
    Long Thumb to Thumb Veneer to ll_processExtInitIRQ 0x1fff1ec9   Thumb Code    12  anon$$obj.o(Veneer$$Code)
    Long Thumb to Thumb Veneer to ll_processPrdAdvIRQ 0x1fff1ed5   Thumb Code    12  anon$$obj.o(Veneer$$Code)
    Long Thumb to Thumb Veneer to ll_processPrdScanIRQ 0x1fff1ee1   Thumb Code    12  anon$$obj.o(Veneer$$Code)
    Long Thumb to Thumb Veneer to ll_processBasicIRQ 0x1fff1eed   Thumb Code    12  anon$$obj.o(Veneer$$Code)
    Long Thumb to Thumb Veneer to ll_schedule_next_event 0x1fff1ef9   Thumb Code    12  anon$$obj.o(Veneer$$Code)
    Long Thumb to Thumb Veneer to llSecAdvAllow 0x1fff1f05   Thumb Code    12  anon$$obj.o(Veneer$$Code)
    Long Thumb to Thumb Veneer to llSetupSecAdvEvt 0x1fff1f11   Thumb Code    12  anon$$obj.o(Veneer$$Code)
    Long Thumb to Thumb Veneer to ll_hw_set_rx_timeout 0x1fff1f1d   Thumb Code    12  anon$$obj.o(Veneer$$Code)
    Long Thumb to Thumb Veneer to llSetupSecScan 0x1fff1f29   Thumb Code    12  anon$$obj.o(Veneer$$Code)
    Long Thumb to Thumb Veneer to llSetupSecInit 0x1fff1f35   Thumb Code    12  anon$$obj.o(Veneer$$Code)
    Long Thumb to Thumb Veneer to LL_SetDataLengh0 0x1fff1f41   Thumb Code    12  anon$$obj.o(Veneer$$Code)
    Long Thumb to Thumb Veneer to __aeabi_uidivmod 0x1fff1f4d   Thumb Code    12  anon$$obj.o(Veneer$$Code)
    Long Thumb to Thumb Veneer to efuse_read 0x1fff1f59   Thumb Code    12  anon$$obj.o(Veneer$$Code)
    Long Thumb to Thumb Veneer to log_printf 0x1fff1f65   Thumb Code    12  anon$$obj.o(Veneer$$Code)
    Long Thumb to Thumb Veneer to osal_msg_receive 0x1fff1f71   Thumb Code    12  anon$$obj.o(Veneer$$Code)
    Long Thumb to Thumb Veneer to osal_msg_deallocate 0x1fff1f7d   Thumb Code    12  anon$$obj.o(Veneer$$Code)
    Long Thumb to Thumb Veneer to __ARM_common_switch8 0x1fff1f89   Thumb Code    12  anon$$obj.o(Veneer$$Code)
    Long Thumb to Thumb Veneer to osal_init_system 0x1fff1f95   Thumb Code    12  anon$$obj.o(Veneer$$Code)
    Long Thumb to Thumb Veneer to osal_pwrmgr_device 0x1fff1fa1   Thumb Code    12  anon$$obj.o(Veneer$$Code)
    Long Thumb to Thumb Veneer to osal_start_system 0x1fff1fad   Thumb Code    12  anon$$obj.o(Veneer$$Code)
    Long Thumb to Thumb Veneer to __aeabi_memclr4 0x1fff1fb9   Thumb Code    12  anon$$obj.o(Veneer$$Code)
    Long Thumb to Thumb Veneer to osal_memcmp 0x1fff1fc5   Thumb Code    12  anon$$obj.o(Veneer$$Code)
    Long Thumb to Thumb Veneer to drv_disable_irq 0x1fff1fd1   Thumb Code    12  anon$$obj.o(Veneer$$Code)
    Long Thumb to Thumb Veneer to drv_enable_irq 0x1fff1fdd   Thumb Code    12  anon$$obj.o(Veneer$$Code)
    Long Thumb to Thumb Veneer to __aeabi_memcpy4 0x1fff1fe9   Thumb Code    12  anon$$obj.o(Veneer$$Code)
    Long Thumb to Thumb Veneer to disableSleep 0x1fff1ff5   Thumb Code    12  anon$$obj.o(Veneer$$Code)
    Long Thumb to Thumb Veneer to osal_mem_set_heap 0x1fff2001   Thumb Code    12  anon$$obj.o(Veneer$$Code)
    Long Thumb to Thumb Veneer to LL_InitConnectContext 0x1fff200d   Thumb Code    12  anon$$obj.o(Veneer$$Code)
    Long Thumb to Thumb Veneer to spif_config 0x1fff2019   Thumb Code    12  anon$$obj.o(Veneer$$Code)
    Long Thumb to Thumb Veneer to llProcessTxData0 0x1fff2025   Thumb Code    12  anon$$obj.o(Veneer$$Code)
    Long Thumb to Thumb Veneer to ll_hw_write_tfifo 0x1fff2031   Thumb Code    12  anon$$obj.o(Veneer$$Code)
    Long Thumb to Thumb Veneer to ll_hw_get_tfifo_wrptr 0x1fff203d   Thumb Code    12  anon$$obj.o(Veneer$$Code)
    Long Thumb to Thumb Veneer to getTxBufferSize 0x1fff2049   Thumb Code    12  anon$$obj.o(Veneer$$Code)
    Long Thumb to Thumb Veneer to get_tx_read_ptr 0x1fff2055   Thumb Code    12  anon$$obj.o(Veneer$$Code)
    Long Thumb to Thumb Veneer to update_tx_read_ptr 0x1fff2061   Thumb Code    12  anon$$obj.o(Veneer$$Code)
    Long Thumb to Thumb Veneer to llEnqueueCtrlPkt 0x1fff206d   Thumb Code    12  anon$$obj.o(Veneer$$Code)
    Long Thumb to Thumb Veneer to set_max_length 0x1fff2079   Thumb Code    12  anon$$obj.o(Veneer$$Code)
    Long Thumb to Thumb Veneer to drv_irq_init 0x1fff2085   Thumb Code    12  anon$$obj.o(Veneer$$Code)
    Long Thumb to Thumb Veneer to clk_init   0x1fff2091   Thumb Code    12  anon$$obj.o(Veneer$$Code)
    Long Thumb to Thumb Veneer to osal_mem_alloc 0x1fff209d   Thumb Code    12  anon$$obj.o(Veneer$$Code)
    Long Thumb to Thumb Veneer to osal_memset 0x1fff20a9   Thumb Code    12  anon$$obj.o(Veneer$$Code)
    Long Thumb to Thumb Veneer to LL_Init    0x1fff20b5   Thumb Code    12  anon$$obj.o(Veneer$$Code)
    Long Thumb to Thumb Veneer to ll_hw_set_crc_fmt 0x1fff20c1   Thumb Code    12  anon$$obj.o(Veneer$$Code)
    Long Thumb to Thumb Veneer to ll_hw_tx2rx_timing_config 0x1fff20cd   Thumb Code    12  anon$$obj.o(Veneer$$Code)
    Long Thumb to Thumb Veneer to __aeabi_memcpy 0x1fff20d9   Thumb Code    12  anon$$obj.o(Veneer$$Code)
    Long Thumb to Thumb Veneer to clk_get_pclk 0x1fff20e5   Thumb Code    12  anon$$obj.o(Veneer$$Code)
    Long Thumb to Thumb Veneer to rtc_get_counter 0x1fff20f1   Thumb Code    12  anon$$obj.o(Veneer$$Code)
    Long Thumb to Thumb Veneer to set_timer  0x1fff20fd   Thumb Code    12  anon$$obj.o(Veneer$$Code)
    Long Thumb to Thumb Veneer to ll_hw_set_empty_head 0x1fff2109   Thumb Code    12  anon$$obj.o(Veneer$$Code)
    Long Thumb to Thumb Veneer to ll_hw_set_rx_timeout_1st 0x1fff2115   Thumb Code    12  anon$$obj.o(Veneer$$Code)
    Long Thumb to Thumb Veneer to ll_hw_set_loop_timeout 0x1fff2121   Thumb Code    12  anon$$obj.o(Veneer$$Code)
    Long Thumb to Thumb Veneer to ll_hw_set_timing 0x1fff212d   Thumb Code    12  anon$$obj.o(Veneer$$Code)
    Long Thumb to Thumb Veneer to ll_hw_ign_rfifo 0x1fff2139   Thumb Code    12  anon$$obj.o(Veneer$$Code)
    hal_UART0_IRQHandler                     0x1fff2145   Thumb Code    62  uart.o(_section_sram_code_)
    init_config                              0x1fff2189   Thumb Code   542  patch.o(_section_xip_code_)
    TRNG_INIT                                0x1fff23ef   Thumb Code    34  patch.o(_section_xip_code_)
    TRNG_Rand                                0x1fff2411   Thumb Code   152  patch.o(_section_xip_code_)
    InsertSort                               0x1fff253d   Thumb Code    54  adc_demo.o(i.InsertSort)
    LL_ENC_AES128_Encrypt1                   0x1fff2573   Thumb Code    26  patch.o(i.LL_ENC_AES128_Encrypt1)
    LL_ENC_Decrypt1                          0x1fff258d   Thumb Code   364  patch.o(i.LL_ENC_Decrypt1)
    LL_ENC_Encrypt1                          0x1fff2705   Thumb Code   342  patch.o(i.LL_ENC_Encrypt1)
    LL_IRQHandler1                           0x1fff2865   Thumb Code   298  patch.o(i.LL_IRQHandler1)
    LL_SetDataLengh1                         0x1fff29b1   Thumb Code    40  patch.o(i.LL_SetDataLengh1)
    SystemInit                               0x1fff2b09   Thumb Code     8  system_armcm0.o(i.SystemInit)
    WaitMs                                   0x1fff2b19   Thumb Code    18  clock.o(i.WaitMs)
    WaitUs                                   0x1fff2b2d   Thumb Code    36  clock.o(i.WaitUs)
    __ARM_clz                                0x1fff2b59   Thumb Code    46  depilogue.o(i.__ARM_clz)
    __scatterload_copy                       0x1fff2b87   Thumb Code    14  handlers.o(i.__scatterload_copy)
    __scatterload_null                       0x1fff2b95   Thumb Code     2  handlers.o(i.__scatterload_null)
    __scatterload_zeroinit                   0x1fff2b97   Thumb Code    14  handlers.o(i.__scatterload_zeroinit)
    _efuse_chip_version_check                0x1fff2ba5   Thumb Code    26  phy_sec_ext.o(i._efuse_chip_version_check)
    _hard_fault                              0x1fff2bc5   Thumb Code   166  jump_table.o(i._hard_fault)
    _rom_sec_boot_init                       0x1fff2dad   Thumb Code    18  phy_sec_ext.o(i._rom_sec_boot_init)
    adcMeasureCh                             0x1fff2dd5   Thumb Code   116  adc_demo.o(i.adcMeasureCh)
    adc_Init                                 0x1fff2ea1   Thumb Code   104  adc_demo.o(i.adc_Init)
    adc_ProcessEvent                         0x1fff2f15   Thumb Code    54  adc_demo.o(i.adc_ProcessEvent)
    adc_init_r                               0x1fff2f51   Thumb Code   424  adc.o(i.adc_init_r)
    adc_stop_r                               0x1fff30fd   Thumb Code     8  adc.o(i.adc_stop_r)
    app_main                                 0x1fff3121   Thumb Code    20  adc_main.o(i.app_main)
    dbg_printf                               0x1fff3329   Thumb Code    22  my_printf.o(i.dbg_printf)
    dbg_printf_init                          0x1fff3345   Thumb Code    16  my_printf.o(i.dbg_printf_init)
    finidv                                   0x1fff3359   Thumb Code   126  phy_sec_ext.o(i.finidv)
    hal_ADC_IRQHandler                       0x1fff33e5   Thumb Code   180  adc.o(i.hal_ADC_IRQHandler)
    hal_GPIO_IRQHandler                      0x1fff34a9   Thumb Code    20  gpio.o(i.hal_GPIO_IRQHandler)
    hal_TIMER5_IRQHandler                    0x1fff34c1   Thumb Code    28  timer.o(i.hal_TIMER5_IRQHandler)
    hal_TIMER6_IRQHandler                    0x1fff34e5   Thumb Code    28  timer.o(i.hal_TIMER6_IRQHandler)
    hal_UART1_IRQHandler                     0x1fff3509   Thumb Code    62  uart.o(i.hal_UART1_IRQHandler)
    hal_adc_init                             0x1fff354d   Thumb Code    24  adc.o(i.hal_adc_init)
    hal_adc_stop                             0x1fff356d   Thumb Code   144  adc.o(i.hal_adc_stop)
    hal_clk_gate_disable                     0x1fff3661   Thumb Code    52  clock.o(i.hal_clk_gate_disable)
    hal_clk_gate_enable                      0x1fff3695   Thumb Code    52  clock.o(i.hal_clk_gate_enable)
    hal_clk_reset                            0x1fff36c9   Thumb Code   122  clock.o(i.hal_clk_reset)
    hal_flash_read                           0x1fff3745   Thumb Code    86  flash.o(i.hal_flash_read)
    hal_gpio_cfg_analog_io                   0x1fff37a1   Thumb Code    44  gpio.o(i.hal_gpio_cfg_analog_io)
    hal_gpio_fmux                            0x1fff37d1   Thumb Code    22  gpio.o(i.hal_gpio_fmux)
    hal_gpio_fmux_set                        0x1fff37ed   Thumb Code    50  gpio.o(i.hal_gpio_fmux_set)
    hal_gpio_init                            0x1fff3825   Thumb Code    72  gpio.o(i.hal_gpio_init)
    hal_gpio_pin2pin3_control                0x1fff38c5   Thumb Code    24  gpio.o(i.hal_gpio_pin2pin3_control)
    hal_gpio_pin_init                        0x1fff38e1   Thumb Code    88  gpio.o(i.hal_gpio_pin_init)
    hal_gpio_pull_set                        0x1fff3941   Thumb Code    60  gpio.o(i.hal_gpio_pull_set)
    hal_gpio_read                            0x1fff3985   Thumb Code    30  gpio.o(i.hal_gpio_read)
    hal_gpio_wakeup_set                      0x1fff3b21   Thumb Code   104  gpio.o(i.hal_gpio_wakeup_set)
    hal_gpio_write                           0x1fff3b99   Thumb Code    30  gpio.o(i.hal_gpio_write)
    hal_gpioin_enable                        0x1fff3bbd   Thumb Code    94  gpio.o(i.hal_gpioin_enable)
    hal_pwm_init                             0x1fff3d19   Thumb Code    94  pwm.o(i.hal_pwm_init)
    hal_pwm_open_channel                     0x1fff3d7d   Thumb Code    38  pwm.o(i.hal_pwm_open_channel)
    hal_pwm_set_count_val                    0x1fff3dad   Thumb Code    52  pwm.o(i.hal_pwm_set_count_val)
    hal_pwm_start                            0x1fff3de5   Thumb Code    38  pwm.o(i.hal_pwm_start)
    hal_pwm_stop                             0x1fff3e15   Thumb Code    46  pwm.o(i.hal_pwm_stop)
    hal_pwrmgr_LowCurrentLdo_enable          0x1fff3e4d   Thumb Code    34  pwrmgr.o(i.hal_pwrmgr_LowCurrentLdo_enable)
    hal_pwrmgr_RAM_retention                 0x1fff3e79   Thumb Code    20  pwrmgr.o(i.hal_pwrmgr_RAM_retention)
    hal_pwrmgr_RAM_retention_set             0x1fff3e91   Thumb Code    24  pwrmgr.o(i.hal_pwrmgr_RAM_retention_set)
    hal_pwrmgr_init                          0x1fff3eb1   Thumb Code    40  pwrmgr.o(i.hal_pwrmgr_init)
    hal_pwrmgr_lock                          0x1fff3ee1   Thumb Code    80  pwrmgr.o(i.hal_pwrmgr_lock)
    hal_pwrmgr_register                      0x1fff3f39   Thumb Code    56  pwrmgr.o(i.hal_pwrmgr_register)
    hal_pwrmgr_sleep_process                 0x1fff3f75   Thumb Code    42  pwrmgr.o(i.hal_pwrmgr_sleep_process)
    hal_pwrmgr_unlock                        0x1fff3fa5   Thumb Code    94  pwrmgr.o(i.hal_pwrmgr_unlock)
    hal_pwrmgr_wakeup_process                0x1fff400d   Thumb Code   102  pwrmgr.o(i.hal_pwrmgr_wakeup_process)
    hal_rom_boot_init                        0x1fff4109   Thumb Code     8  patch.o(i.hal_rom_boot_init)
    hal_rtc_clock_config                     0x1fff4111   Thumb Code   118  clock.o(i.hal_rtc_clock_config)
    hal_spif_cache_init                      0x1fff4195   Thumb Code    26  flash.o(i.hal_spif_cache_init)
    hal_timer_init                           0x1fff41b9   Thumb Code    30  timer.o(i.hal_timer_init)
    hal_timer_set                            0x1fff41e5   Thumb Code    88  timer.o(i.hal_timer_set)
    hal_timer_sleep_handler                  0x1fff4269   Thumb Code    14  timer.o(i.hal_timer_sleep_handler)
    hal_timer_stop                           0x1fff427d   Thumb Code    64  timer.o(i.hal_timer_stop)
    hal_uart_init                            0x1fff42e9   Thumb Code    88  uart.o(i.hal_uart_init)
    hal_uart_send_buff                       0x1fff434d   Thumb Code    26  uart.o(i.hal_uart_send_buff)
    l2capPocessFragmentTxData                0x1fff44cd   Thumb Code     2  patch.o(i.l2capPocessFragmentTxData)
    llProcessTxData1                         0x1fff44cf   Thumb Code    12  patch.o(i.llProcessTxData1)
    ll_generateTxBuffer1                     0x1fff44dd   Thumb Code   410  patch.o(i.ll_generateTxBuffer1)
    ll_hw_go1                                0x1fff4689   Thumb Code   384  patch.o(i.ll_hw_go1)
    ll_processBasicIRQ_SRX                   0x1fff4871   Thumb Code    20  patch.o(i.ll_processBasicIRQ_SRX)
    ll_processBasicIRQ_secondaryAdvTRX       0x1fff4889   Thumb Code    20  patch.o(i.ll_processBasicIRQ_secondaryAdvTRX)
    main                                     0x1fff4b09   Thumb Code   136  main.o(i.main)
    my_hal_adc_value_cal                     0x1fff4c2d   Thumb Code    70  adc_demo.o(i.my_hal_adc_value_cal)
    osalInitTasks                            0x1fff4de5   Thumb Code    38  osal_adc.o(i.osalInitTasks)
    rc32k_calibration                        0x1fff4e11   Thumb Code    98  rf_phy_driver.o(i.rc32k_calibration)
    rf_calibrate1                            0x1fff4e79   Thumb Code    30  rf_phy_driver.o(i.rf_calibrate1)
    rf_phy_ana_cfg                           0x1fff4ea1   Thumb Code   228  rf_phy_driver.o(i.rf_phy_ana_cfg)
    rf_phy_bb_cfg                            0x1fff4fb9   Thumb Code   300  rf_phy_driver.o(i.rf_phy_bb_cfg)
    rf_phy_change_cfg0                       0x1fff5159   Thumb Code   118  rf_phy_driver.o(i.rf_phy_change_cfg0)
    rf_phy_ini                               0x1fff51ed   Thumb Code    42  rf_phy_driver.o(i.rf_phy_ini)
    rf_phy_set_txPower                       0x1fff5229   Thumb Code   108  rf_phy_driver.o(i.rf_phy_set_txPower)
    rf_rxDcoc_cfg                            0x1fff529d   Thumb Code   236  rf_phy_driver.o(i.rf_rxDcoc_cfg)
    rf_tpCal_gen_cap_arrary                  0x1fff53bd   Thumb Code    60  rf_phy_driver.o(i.rf_tpCal_gen_cap_arrary)
    rf_tp_cal                                0x1fff5409   Thumb Code   232  rf_phy_driver.o(i.rf_tp_cal)
    time_cb                                  0x1fff5541   Thumb Code    32  adc_demo.o(i.time_cb)
    wakeup_init1                             0x1fff586d   Thumb Code   196  patch.o(i.wakeup_init1)
    adc_base_addr                            0x1fff597c   Data          24  adc_demo.o(.constdata)
    tasksArr                                 0x1fff5994   Data           8  osal_adc.o(.constdata)
    tasksCnt                                 0x1fff599c   Data           1  osal_adc.o(.constdata)
    c_gpio_index                             0x1fff599d   Data          23  gpio.o(.constdata)
    c_gpio_pull                              0x1fff59b4   Data          69  gpio.o(.constdata)
    retention_reg                            0x1fff59f9   Data          46  gpio.o(.constdata)
    Region$$Table$$Base                      0x1fff5afc   Number         0  anon$$obj.o(Region$$Table)
    Region$$Table$$Limit                     0x1fff5b2c   Number         0  anon$$obj.o(Region$$Table)
    g_clk32K_config                          0x1fff5b2c   Data           1  main.o(.data)
    tasksEvents                              0x1fff5b38   Data           4  osal_adc.o(.data)
    s_pinmap                                 0x1fff5b42   Data           9  adc.o(.data)
    s_config_swClk1                          0x1fff5b6c   Data           4  pwrmgr.o(.data)
    s_gpio_wakeup_src_group1                 0x1fff5b74   Data           4  pwrmgr.o(.data)
    s_gpio_wakeup_src_group2                 0x1fff5b78   Data           4  pwrmgr.o(.data)
    g_chipMAddr                              0x1fff5b7c   Data           7  flash.o(.data)
    trap_c_callback                          0x1fff5b8c   Data           4  jump_table.o(.data)
    SystemCoreClock                          0x1fff5b90   Data           4  system_armcm0.o(.data)
    CreateConn_Flag                          0x1fff5b94   Data           1  patch.o(.data)
    pGlobal_config                           0x1fff5b98   Data           4  patch.o(.data)
    g_xtal16M_tmp                            0x1fff5b9c   Data           4  patch.o(.data)
    g_xtal96M_temp                           0x1fff5ba0   Data           4  patch.o(.data)
    DLL_enable_num                           0x1fff5ba4   Data           4  patch.o(.data)
    tracking_cnt                             0x1fff5ba8   Data           4  patch.o(.data)
    g_dtmManualConfig                        0x1fff5bac   Data           1  rf_phy_driver.o(.data)
    g_rc32kCalRes                            0x1fff5bad   Data           1  rf_phy_driver.o(.data)
    s_company_id                             0x1fff5bb4   Data           4  phy_sec_ext.o(.data)
    g_ota_sec_key_valid                      0x1fff5bb8   Data           1  phy_sec_ext.o(.data)
    pwroff_register_number                   0x1fff5bba   Data           1  pwrmgr.o(_section_standby_code_)
    s_pwroff_cfg                             0x1fff5bbc   Data          12  pwrmgr.o(_section_standby_code_)
    g_pConnectionBuffer                      0x1fff5bc8   Data        3484  main.o(.bss)
    pConnContext                             0x1fff6964   Data         644  main.o(.bss)
    g_largeHeap                              0x1fff6be8   Data        4096  main.o(.bss)
    adc_buf                                  0x1fff7be8   Data         128  adc_demo.o(.bss)
    g_ota_sec_key                            0x1fff7e94   Data          16  phy_sec_ext.o(.bss)
    __initial_sp                             0x1fff82a8   Data           0  startup_armcm0.o(STACK)



==============================================================================

Memory Map of the image

  Image Entry point : 0x1fff18f9

  Load Region LR_IROM1 (Base: 0x1fff1838, Size: 0x00004390, Max: 0x0000e7c8, ABSOLUTE)

    Execution Region ER_IROM1 (Base: 0x1fff1838, Size: 0x00006a70, Max: 0x0000e7c8, ABSOLUTE)

    Base Addr    Size         Type   Attr      Idx    E Section Name        Object

    0x1fff1838   0x000000c0   Data   RO         1301    RESET               startup_armcm0.o
    0x1fff18f8   0x00000000   Code   RO         1584  * .ARM.Collect$$$$00000000  mc_p.l(entry.o)
    0x1fff18f8   0x00000004   Code   RO         1613    .ARM.Collect$$$$00000001  mc_p.l(entry2.o)
    0x1fff18fc   0x00000004   Code   RO         1616    .ARM.Collect$$$$00000004  mc_p.l(entry5.o)
    0x1fff1900   0x00000000   Code   RO         1618    .ARM.Collect$$$$00000008  mc_p.l(entry7b.o)
    0x1fff1900   0x00000000   Code   RO         1620    .ARM.Collect$$$$0000000A  mc_p.l(entry8b.o)
    0x1fff1900   0x00000008   Code   RO         1621    .ARM.Collect$$$$0000000B  mc_p.l(entry9a.o)
    0x1fff1908   0x00000000   Code   RO         1623    .ARM.Collect$$$$0000000D  mc_p.l(entry10a.o)
    0x1fff1908   0x00000000   Code   RO         1625    .ARM.Collect$$$$0000000F  mc_p.l(entry11a.o)
    0x1fff1908   0x00000004   Code   RO         1614    .ARM.Collect$$$$00002712  mc_p.l(entry2.o)
    0x1fff190c   0x00000030   Code   RO         1272    .emb_text           jump_table.o
    0x1fff193c   0x0000001c   Code   RO         1302    .text               startup_armcm0.o
    0x1fff1958   0x000000b2   Code   RO         1587    .text               mf_p.l(fadd.o)
    0x1fff1a0a   0x0000007a   Code   RO         1589    .text               mf_p.l(fmul.o)
    0x1fff1a84   0x00000018   Code   RO         1593    .text               mf_p.l(fscalb.o)
    0x1fff1a9c   0x000000d0   Code   RO         1595    .text               mf_p.l(dmul.o)
    0x1fff1b6c   0x0000000e   Code   RO         1603    .text               mf_p.l(ffltui.o)
    0x1fff1b7a   0x00000032   Code   RO         1607    .text               mf_p.l(ffixi.o)
    0x1fff1bac   0x00000028   Code   RO         1609    .text               mf_p.l(f2d.o)
    0x1fff1bd4   0x00000038   Code   RO         1611    .text               mf_p.l(d2f.o)
    0x1fff1c0c   0x00000000   Code   RO         1627    .text               mc_p.l(iusefp.o)
    0x1fff1c0c   0x00000082   Code   RO         1628    .text               mf_p.l(fepilogue.o)
    0x1fff1c8e   0x000000be   Code   RO         1630    .text               mf_p.l(depilogue.o)
    0x1fff1d4c   0x00000024   Code   RO         1634    .text               mc_p.l(init.o)
    0x1fff1d70   0x00000020   Code   RO         1636    .text               mc_p.l(llshl.o)
    0x1fff1d90   0x00000022   Code   RO         1638    .text               mc_p.l(llushr.o)
    0x1fff1db2   0x00000056   Code   RO         1648    .text               mc_p.l(__dczerorl2.o)
    0x1fff1e08   0x0000000c   Ven    RO         1650    Veneer$$Code        anon$$obj.o
    0x1fff1e14   0x0000000c   Ven    RO         1651    Veneer$$Code        anon$$obj.o
    0x1fff1e20   0x0000000c   Ven    RO         1652    Veneer$$Code        anon$$obj.o
    0x1fff1e2c   0x0000000c   Ven    RO         1653    Veneer$$Code        anon$$obj.o
    0x1fff1e38   0x0000000c   Ven    RO         1654    Veneer$$Code        anon$$obj.o
    0x1fff1e44   0x0000000c   Ven    RO         1655    Veneer$$Code        anon$$obj.o
    0x1fff1e50   0x0000000c   Ven    RO         1656    Veneer$$Code        anon$$obj.o
    0x1fff1e5c   0x0000000c   Ven    RO         1657    Veneer$$Code        anon$$obj.o
    0x1fff1e68   0x0000000c   Ven    RO         1658    Veneer$$Code        anon$$obj.o
    0x1fff1e74   0x0000000c   Ven    RO         1659    Veneer$$Code        anon$$obj.o
    0x1fff1e80   0x0000000c   Ven    RO         1660    Veneer$$Code        anon$$obj.o
    0x1fff1e8c   0x0000000c   Ven    RO         1661    Veneer$$Code        anon$$obj.o
    0x1fff1e98   0x0000000c   Ven    RO         1662    Veneer$$Code        anon$$obj.o
    0x1fff1ea4   0x0000000c   Ven    RO         1663    Veneer$$Code        anon$$obj.o
    0x1fff1eb0   0x0000000c   Ven    RO         1664    Veneer$$Code        anon$$obj.o
    0x1fff1ebc   0x0000000c   Ven    RO         1665    Veneer$$Code        anon$$obj.o
    0x1fff1ec8   0x0000000c   Ven    RO         1666    Veneer$$Code        anon$$obj.o
    0x1fff1ed4   0x0000000c   Ven    RO         1667    Veneer$$Code        anon$$obj.o
    0x1fff1ee0   0x0000000c   Ven    RO         1668    Veneer$$Code        anon$$obj.o
    0x1fff1eec   0x0000000c   Ven    RO         1669    Veneer$$Code        anon$$obj.o
    0x1fff1ef8   0x0000000c   Ven    RO         1670    Veneer$$Code        anon$$obj.o
    0x1fff1f04   0x0000000c   Ven    RO         1671    Veneer$$Code        anon$$obj.o
    0x1fff1f10   0x0000000c   Ven    RO         1672    Veneer$$Code        anon$$obj.o
    0x1fff1f1c   0x0000000c   Ven    RO         1673    Veneer$$Code        anon$$obj.o
    0x1fff1f28   0x0000000c   Ven    RO         1674    Veneer$$Code        anon$$obj.o
    0x1fff1f34   0x0000000c   Ven    RO         1675    Veneer$$Code        anon$$obj.o
    0x1fff1f40   0x0000000c   Ven    RO         1676    Veneer$$Code        anon$$obj.o
    0x1fff1f4c   0x0000000c   Ven    RO         1677    Veneer$$Code        anon$$obj.o
    0x1fff1f58   0x0000000c   Ven    RO         1678    Veneer$$Code        anon$$obj.o
    0x1fff1f64   0x0000000c   Ven    RO         1679    Veneer$$Code        anon$$obj.o
    0x1fff1f70   0x0000000c   Ven    RO         1680    Veneer$$Code        anon$$obj.o
    0x1fff1f7c   0x0000000c   Ven    RO         1681    Veneer$$Code        anon$$obj.o
    0x1fff1f88   0x0000000c   Ven    RO         1682    Veneer$$Code        anon$$obj.o
    0x1fff1f94   0x0000000c   Ven    RO         1683    Veneer$$Code        anon$$obj.o
    0x1fff1fa0   0x0000000c   Ven    RO         1684    Veneer$$Code        anon$$obj.o
    0x1fff1fac   0x0000000c   Ven    RO         1685    Veneer$$Code        anon$$obj.o
    0x1fff1fb8   0x0000000c   Ven    RO         1686    Veneer$$Code        anon$$obj.o
    0x1fff1fc4   0x0000000c   Ven    RO         1687    Veneer$$Code        anon$$obj.o
    0x1fff1fd0   0x0000000c   Ven    RO         1688    Veneer$$Code        anon$$obj.o
    0x1fff1fdc   0x0000000c   Ven    RO         1689    Veneer$$Code        anon$$obj.o
    0x1fff1fe8   0x0000000c   Ven    RO         1690    Veneer$$Code        anon$$obj.o
    0x1fff1ff4   0x0000000c   Ven    RO         1691    Veneer$$Code        anon$$obj.o
    0x1fff2000   0x0000000c   Ven    RO         1692    Veneer$$Code        anon$$obj.o
    0x1fff200c   0x0000000c   Ven    RO         1693    Veneer$$Code        anon$$obj.o
    0x1fff2018   0x0000000c   Ven    RO         1694    Veneer$$Code        anon$$obj.o
    0x1fff2024   0x0000000c   Ven    RO         1695    Veneer$$Code        anon$$obj.o
    0x1fff2030   0x0000000c   Ven    RO         1696    Veneer$$Code        anon$$obj.o
    0x1fff203c   0x0000000c   Ven    RO         1697    Veneer$$Code        anon$$obj.o
    0x1fff2048   0x0000000c   Ven    RO         1698    Veneer$$Code        anon$$obj.o
    0x1fff2054   0x0000000c   Ven    RO         1699    Veneer$$Code        anon$$obj.o
    0x1fff2060   0x0000000c   Ven    RO         1700    Veneer$$Code        anon$$obj.o
    0x1fff206c   0x0000000c   Ven    RO         1701    Veneer$$Code        anon$$obj.o
    0x1fff2078   0x0000000c   Ven    RO         1702    Veneer$$Code        anon$$obj.o
    0x1fff2084   0x0000000c   Ven    RO         1703    Veneer$$Code        anon$$obj.o
    0x1fff2090   0x0000000c   Ven    RO         1704    Veneer$$Code        anon$$obj.o
    0x1fff209c   0x0000000c   Ven    RO         1705    Veneer$$Code        anon$$obj.o
    0x1fff20a8   0x0000000c   Ven    RO         1706    Veneer$$Code        anon$$obj.o
    0x1fff20b4   0x0000000c   Ven    RO         1707    Veneer$$Code        anon$$obj.o
    0x1fff20c0   0x0000000c   Ven    RO         1708    Veneer$$Code        anon$$obj.o
    0x1fff20cc   0x0000000c   Ven    RO         1709    Veneer$$Code        anon$$obj.o
    0x1fff20d8   0x0000000c   Ven    RO         1710    Veneer$$Code        anon$$obj.o
    0x1fff20e4   0x0000000c   Ven    RO         1711    Veneer$$Code        anon$$obj.o
    0x1fff20f0   0x0000000c   Ven    RO         1712    Veneer$$Code        anon$$obj.o
    0x1fff20fc   0x0000000c   Ven    RO         1713    Veneer$$Code        anon$$obj.o
    0x1fff2108   0x0000000c   Ven    RO         1714    Veneer$$Code        anon$$obj.o
    0x1fff2114   0x0000000c   Ven    RO         1715    Veneer$$Code        anon$$obj.o
    0x1fff2120   0x0000000c   Ven    RO         1716    Veneer$$Code        anon$$obj.o
    0x1fff212c   0x0000000c   Ven    RO         1717    Veneer$$Code        anon$$obj.o
    0x1fff2138   0x0000000c   Ven    RO         1718    Veneer$$Code        anon$$obj.o
    0x1fff2144   0x00000044   Code   RO          946    _section_sram_code_  uart.o
    0x1fff2188   0x000003b4   Code   RO         1346    _section_xip_code_  rf.lib(patch.o)
    0x1fff253c   0x00000036   Code   RO          171    i.InsertSort        adc_demo.o
    0x1fff2572   0x0000001a   Code   RO         1353    i.LL_ENC_AES128_Encrypt1  rf.lib(patch.o)
    0x1fff258c   0x00000178   Code   RO         1354    i.LL_ENC_Decrypt1   rf.lib(patch.o)
    0x1fff2704   0x00000160   Code   RO         1355    i.LL_ENC_Encrypt1   rf.lib(patch.o)
    0x1fff2864   0x0000014c   Code   RO         1358    i.LL_IRQHandler1    rf.lib(patch.o)
    0x1fff29b0   0x00000030   Code   RO         1365    i.LL_SetDataLengh1  rf.lib(patch.o)
    0x1fff29e0   0x00000018   Code   RO         1370    i.NVIC_EnableIRQ    rf.lib(patch.o)
    0x1fff29f8   0x00000044   Code   RO            3    i.NVIC_SetPriority  main.o
    0x1fff2a3c   0x00000044   Code   RO          432    i.NVIC_SetPriority  timer.o
    0x1fff2a80   0x00000044   Code   RO          701    i.NVIC_SetPriority  gpio.o
    0x1fff2ac4   0x00000044   Code   RO         1052    i.NVIC_SetPriority  pwrmgr.o
    0x1fff2b08   0x00000010   Code   RO         1309    i.SystemInit        system_armcm0.o
    0x1fff2b18   0x00000012   Code   RO          616    i.WaitMs            clock.o
    0x1fff2b2a   0x00000002   PAD
    0x1fff2b2c   0x0000002c   Code   RO          617    i.WaitUs            clock.o
    0x1fff2b58   0x0000002e   Code   RO         1632    i.__ARM_clz         mf_p.l(depilogue.o)
    0x1fff2b86   0x0000000e   Code   RO         1642    i.__scatterload_copy  mc_p.l(handlers.o)
    0x1fff2b94   0x00000002   Code   RO         1643    i.__scatterload_null  mc_p.l(handlers.o)
    0x1fff2b96   0x0000000e   Code   RO         1644    i.__scatterload_zeroinit  mc_p.l(handlers.o)
    0x1fff2ba4   0x00000020   Code   RO         1529    i._efuse_chip_version_check  rf.lib(phy_sec_ext.o)
    0x1fff2bc4   0x000001e8   Code   RO         1273    i._hard_fault       jump_table.o
    0x1fff2dac   0x00000018   Code   RO         1530    i._rom_sec_boot_init  rf.lib(phy_sec_ext.o)
    0x1fff2dc4   0x0000000e   Code   RO          887    i._uart_putc        my_printf.o
    0x1fff2dd2   0x00000002   PAD
    0x1fff2dd4   0x00000080   Code   RO          172    i.adcMeasureCh      adc_demo.o
    0x1fff2e54   0x0000004c   Code   RO          173    i.adcMeasureTask    adc_demo.o
    0x1fff2ea0   0x00000074   Code   RO          174    i.adc_Init          adc_demo.o
    0x1fff2f14   0x0000003c   Code   RO          175    i.adc_ProcessEvent  adc_demo.o
    0x1fff2f50   0x000001ac   Code   RO          300    i.adc_init_r        adc.o
    0x1fff30fc   0x0000000c   Code   RO          301    i.adc_stop_r        adc.o
    0x1fff3108   0x00000018   Code   RO          302    i.adc_wakeup_hdl    adc.o
    0x1fff3120   0x00000014   Code   RO          242    i.app_main          adc_main.o
    0x1fff3134   0x000000d4   Code   RO         1371    i.check_16MXtal_by_rcTracking  rf.lib(patch.o)
    0x1fff3208   0x00000110   Code   RO         1372    i.check_96MXtal_by_rcTracking  rf.lib(patch.o)
    0x1fff3318   0x00000010   Code   RO          303    i.clear_adcc_cfg    adc.o
    0x1fff3328   0x0000001c   Code   RO          888    i.dbg_printf        my_printf.o
    0x1fff3344   0x00000014   Code   RO          889    i.dbg_printf_init   my_printf.o
    0x1fff3358   0x0000008c   Code   RO         1531    i.finidv            rf.lib(phy_sec_ext.o)
    0x1fff33e4   0x000000c4   Code   RO          304    i.hal_ADC_IRQHandler  adc.o
    0x1fff34a8   0x00000018   Code   RO          702    i.hal_GPIO_IRQHandler  gpio.o
    0x1fff34c0   0x00000024   Code   RO          433    i.hal_TIMER5_IRQHandler  timer.o
    0x1fff34e4   0x00000024   Code   RO          434    i.hal_TIMER6_IRQHandler  timer.o
    0x1fff3508   0x00000044   Code   RO          947    i.hal_UART1_IRQHandler  uart.o
    0x1fff354c   0x00000020   Code   RO          307    i.hal_adc_init      adc.o
    0x1fff356c   0x000000ac   Code   RO          309    i.hal_adc_stop      adc.o
    0x1fff3618   0x00000048   Code   RO         1175    i.hal_cache_tag_flush  flash.o
    0x1fff3660   0x00000034   Code   RO          618    i.hal_clk_gate_disable  clock.o
    0x1fff3694   0x00000034   Code   RO          619    i.hal_clk_gate_enable  clock.o
    0x1fff36c8   0x0000007a   Code   RO          622    i.hal_clk_reset     clock.o
    0x1fff3742   0x00000002   PAD
    0x1fff3744   0x0000005c   Code   RO         1179    i.hal_flash_read    flash.o
    0x1fff37a0   0x00000030   Code   RO          703    i.hal_gpio_cfg_analog_io  gpio.o
    0x1fff37d0   0x0000001c   Code   RO          707    i.hal_gpio_fmux     gpio.o
    0x1fff37ec   0x00000038   Code   RO          708    i.hal_gpio_fmux_set  gpio.o
    0x1fff3824   0x00000060   Code   RO          709    i.hal_gpio_init     gpio.o
    0x1fff3884   0x00000040   Code   RO          710    i.hal_gpio_interrupt_enable  gpio.o
    0x1fff38c4   0x0000001c   Code   RO          711    i.hal_gpio_pin2pin3_control  gpio.o
    0x1fff38e0   0x00000060   Code   RO          712    i.hal_gpio_pin_init  gpio.o
    0x1fff3940   0x00000044   Code   RO          713    i.hal_gpio_pull_set  gpio.o
    0x1fff3984   0x00000024   Code   RO          714    i.hal_gpio_read     gpio.o
    0x1fff39a8   0x0000005c   Code   RO          715    i.hal_gpio_retention_enable  gpio.o
    0x1fff3a04   0x00000048   Code   RO          716    i.hal_gpio_sleep_handler  gpio.o
    0x1fff3a4c   0x00000044   Code   RO          717    i.hal_gpio_wakeup_control  gpio.o
    0x1fff3a90   0x00000090   Code   RO          718    i.hal_gpio_wakeup_handler  gpio.o
    0x1fff3b20   0x00000078   Code   RO          719    i.hal_gpio_wakeup_set  gpio.o
    0x1fff3b98   0x00000024   Code   RO          720    i.hal_gpio_write    gpio.o
    0x1fff3bbc   0x00000064   Code   RO          722    i.hal_gpioin_enable  gpio.o
    0x1fff3c20   0x00000068   Code   RO          723    i.hal_gpioin_event  gpio.o
    0x1fff3c88   0x00000024   Code   RO          724    i.hal_gpioin_event_pin  gpio.o
    0x1fff3cac   0x0000006c   Code   RO            4    i.hal_low_power_io_init  main.o
    0x1fff3d18   0x00000064   Code   RO          527    i.hal_pwm_init      pwm.o
    0x1fff3d7c   0x00000030   Code   RO          530    i.hal_pwm_open_channel  pwm.o
    0x1fff3dac   0x00000038   Code   RO          531    i.hal_pwm_set_count_val  pwm.o
    0x1fff3de4   0x00000030   Code   RO          532    i.hal_pwm_start     pwm.o
    0x1fff3e14   0x00000038   Code   RO          533    i.hal_pwm_stop      pwm.o
    0x1fff3e4c   0x0000002c   Code   RO         1054    i.hal_pwrmgr_LowCurrentLdo_enable  pwrmgr.o
    0x1fff3e78   0x00000018   Code   RO         1055    i.hal_pwrmgr_RAM_retention  pwrmgr.o
    0x1fff3e90   0x00000020   Code   RO         1057    i.hal_pwrmgr_RAM_retention_set  pwrmgr.o
    0x1fff3eb0   0x00000030   Code   RO         1059    i.hal_pwrmgr_init   pwrmgr.o
    0x1fff3ee0   0x00000058   Code   RO         1061    i.hal_pwrmgr_lock   pwrmgr.o
    0x1fff3f38   0x0000003c   Code   RO         1063    i.hal_pwrmgr_register  pwrmgr.o
    0x1fff3f74   0x00000030   Code   RO         1064    i.hal_pwrmgr_sleep_process  pwrmgr.o
    0x1fff3fa4   0x00000068   Code   RO         1065    i.hal_pwrmgr_unlock  pwrmgr.o
    0x1fff400c   0x00000074   Code   RO         1067    i.hal_pwrmgr_wakeup_process  pwrmgr.o
    0x1fff4080   0x00000088   Code   RO            5    i.hal_rfphy_init    main.o
    0x1fff4108   0x00000008   Code   RO         1374    i.hal_rom_boot_init  rf.lib(patch.o)
    0x1fff4110   0x00000084   Code   RO          624    i.hal_rtc_clock_config  clock.o
    0x1fff4194   0x00000024   Code   RO         1182    i.hal_spif_cache_init  flash.o
    0x1fff41b8   0x0000002c   Code   RO          436    i.hal_timer_init    timer.o
    0x1fff41e4   0x0000006c   Code   RO          438    i.hal_timer_set     timer.o
    0x1fff4250   0x00000016   Code   RO          439    i.hal_timer_set_loadtimer  timer.o
    0x1fff4266   0x00000002   PAD
    0x1fff4268   0x00000014   Code   RO          440    i.hal_timer_sleep_handler  timer.o
    0x1fff427c   0x0000004c   Code   RO          441    i.hal_timer_stop    timer.o
    0x1fff42c8   0x0000000a   Code   RO          442    i.hal_timer_stop_counter  timer.o
    0x1fff42d2   0x00000002   PAD
    0x1fff42d4   0x00000014   Code   RO          443    i.hal_timer_wakeup_handler  timer.o
    0x1fff42e8   0x00000064   Code   RO          950    i.hal_uart_init     uart.o
    0x1fff434c   0x00000020   Code   RO          951    i.hal_uart_send_buff  uart.o
    0x1fff436c   0x00000070   Code   RO         1183    i.hw_spif_cache_config  flash.o
    0x1fff43dc   0x00000058   Code   RO          954    i.irq_rx_handler    uart.o
    0x1fff4434   0x00000098   Code   RO          955    i.irq_tx_empty_handler  uart.o
    0x1fff44cc   0x00000002   Code   RO         1375    i.l2capPocessFragmentTxData  rf.lib(patch.o)
    0x1fff44ce   0x0000000c   Code   RO         1380    i.llProcessTxData1  rf.lib(patch.o)
    0x1fff44da   0x00000002   PAD
    0x1fff44dc   0x000001ac   Code   RO         1384    i.ll_generateTxBuffer1  rf.lib(patch.o)
    0x1fff4688   0x000001e8   Code   RO         1385    i.ll_hw_go1         rf.lib(patch.o)
    0x1fff4870   0x00000018   Code   RO         1389    i.ll_processBasicIRQ_SRX  rf.lib(patch.o)
    0x1fff4888   0x00000018   Code   RO         1391    i.ll_processBasicIRQ_secondaryAdvTRX  rf.lib(patch.o)
    0x1fff48a0   0x00000268   Code   RO          890    i.log_vsprintf      my_printf.o
    0x1fff4b08   0x00000124   Code   RO            6    i.main              main.o
    0x1fff4c2c   0x00000050   Code   RO          176    i.my_hal_adc_value_cal  adc_demo.o
    0x1fff4c7c   0x00000168   Code   RO          892    i.number            my_printf.o
    0x1fff4de4   0x0000002c   Code   RO          272    i.osalInitTasks     osal_adc.o
    0x1fff4e10   0x00000068   Code   RO         1465    i.rc32k_calibration  rf.lib(rf_phy_driver.o)
    0x1fff4e78   0x00000028   Code   RO         1466    i.rf_calibrate1     rf.lib(rf_phy_driver.o)
    0x1fff4ea0   0x00000118   Code   RO         1467    i.rf_phy_ana_cfg    rf.lib(rf_phy_driver.o)
    0x1fff4fb8   0x000001a0   Code   RO         1468    i.rf_phy_bb_cfg     rf.lib(rf_phy_driver.o)
    0x1fff5158   0x00000094   Code   RO         1469    i.rf_phy_change_cfg0  rf.lib(rf_phy_driver.o)
    0x1fff51ec   0x0000003c   Code   RO         1485    i.rf_phy_ini        rf.lib(rf_phy_driver.o)
    0x1fff5228   0x00000074   Code   RO         1486    i.rf_phy_set_txPower  rf.lib(rf_phy_driver.o)
    0x1fff529c   0x00000120   Code   RO         1487    i.rf_rxDcoc_cfg     rf.lib(rf_phy_driver.o)
    0x1fff53bc   0x0000004c   Code   RO         1490    i.rf_tpCal_gen_cap_arrary  rf.lib(rf_phy_driver.o)
    0x1fff5408   0x00000118   Code   RO         1491    i.rf_tp_cal         rf.lib(rf_phy_driver.o)
    0x1fff5520   0x00000020   Code   RO          893    i.skip_atoi         my_printf.o
    0x1fff5540   0x00000024   Code   RO          177    i.time_cb           adc_demo.o
    0x1fff5564   0x0000006c   Code   RO          956    i.txmit_buf_polling  uart.o
    0x1fff55d0   0x000000bc   Code   RO          957    i.txmit_buf_use_tx_buf  uart.o
    0x1fff568c   0x00000078   Code   RO          958    i.uart_hw_deinit    uart.o
    0x1fff5704   0x00000154   Code   RO          959    i.uart_hw_init      uart.o
    0x1fff5858   0x0000000a   Code   RO          960    i.uart_wakeup_process_0  uart.o
    0x1fff5862   0x0000000a   Code   RO          961    i.uart_wakeup_process_1  uart.o
    0x1fff586c   0x000000f4   Code   RO         1398    i.wakeup_init1      rf.lib(patch.o)
    0x1fff5960   0x0000001c   Data   RO            8    .constdata          main.o
    0x1fff597c   0x00000018   Data   RO          181    .constdata          adc_demo.o
    0x1fff5994   0x00000008   Data   RO          273    .constdata          osal_adc.o
    0x1fff599c   0x00000001   Data   RO          274    .constdata          osal_adc.o
    0x1fff599d   0x0000008a   Data   RO          731    .constdata          gpio.o
    0x1fff5a27   0x00000001   PAD
    0x1fff5a28   0x00000010   Data   RO          894    .constdata          my_printf.o
    0x1fff5a38   0x0000000c   Data   RO          963    .constdata          uart.o
    0x1fff5a44   0x00000054   Data   RO            9    .conststring        main.o
    0x1fff5a98   0x0000004d   Data   RO          895    .conststring        my_printf.o
    0x1fff5ae5   0x00000003   PAD
    0x1fff5ae8   0x00000011   Data   RO         1535    .conststring        rf.lib(phy_sec_ext.o)
    0x1fff5af9   0x00000003   PAD
    0x1fff5afc   0x00000030   Data   RO         1640    Region$$Table       anon$$obj.o
    0x1fff5b2c   0x00000001   Data   RW           10    .data               main.o
    0x1fff5b2d   0x00000003   PAD
    0x1fff5b30   0x00000008   Data   RW          182    .data               adc_demo.o
    0x1fff5b38   0x00000004   Data   RW          275    .data               osal_adc.o
    0x1fff5b3c   0x0000000f   Data   RW          314    .data               adc.o
    0x1fff5b4b   0x00000001   PAD
    0x1fff5b4c   0x00000004   Data   RW          445    .data               timer.o
    0x1fff5b50   0x0000000a   Data   RW          535    .data               pwm.o
    0x1fff5b5a   0x00000002   PAD
    0x1fff5b5c   0x00000008   Data   RW          896    .data               my_printf.o
    0x1fff5b64   0x00000018   Data   RW         1069    .data               pwrmgr.o
    0x1fff5b7c   0x00000010   Data   RW         1185    .data               flash.o
    0x1fff5b8c   0x00000004   Data   RW         1274    .data               jump_table.o
    0x1fff5b90   0x00000004   Data   RW         1310    .data               system_armcm0.o
    0x1fff5b94   0x00000018   Data   RW         1402    .data               rf.lib(patch.o)
    0x1fff5bac   0x00000008   Data   RW         1493    .data               rf.lib(rf_phy_driver.o)
    0x1fff5bb4   0x00000004   Data   RW         1536    .data               rf.lib(phy_sec_ext.o)
    0x1fff5bb8   0x00000001   Data   RW         1537    .data               rf.lib(phy_sec_ext.o)
    0x1fff5bb9   0x00000001   PAD
    0x1fff5bba   0x0000000e   Data   RW         1070    _section_standby_code_  pwrmgr.o
    0x1fff5bc8   0x00002020   Zero   RW            7    .bss                main.o
    0x1fff7be8   0x00000080   Zero   RW          179    .bss                adc_demo.o
    0x1fff7c68   0x00000028   Zero   RW          312    .bss                adc.o
    0x1fff7c90   0x0000012c   Zero   RW          730    .bss                gpio.o
    0x1fff7dbc   0x00000040   Zero   RW          962    .bss                uart.o
    0x1fff7dfc   0x00000078   Zero   RW         1068    .bss                pwrmgr.o
    0x1fff7e74   0x00000020   Zero   RW         1399    .bss                rf.lib(patch.o)
    0x1fff7e94   0x00000010   Zero   RW         1533    .bss                rf.lib(phy_sec_ext.o)
    0x1fff7ea4   0x00000004   PAD
    0x1fff7ea8   0x00000400   Zero   RW         1299    STACK               startup_armcm0.o



  Load Region LR_IROM2 (Base: 0x1fff0000, Size: 0x00000800, Max: 0x00000800, ABSOLUTE, COMPRESSED[0x0000040c])

    Execution Region JUMP_TABLE (Base: 0x1fff0000, Size: 0x00000400, Max: 0x00000400, ABSOLUTE)

    Base Addr    Size         Type   Attr      Idx    E Section Name        Object

    0x1fff0000   0x00000400   Data   RO         1276    jump_table_mem_area  jump_table.o


    Execution Region GOLBAL_CONFIG (Base: 0x1fff0400, Size: 0x00000400, Max: 0x00000400, ABSOLUTE, COMPRESSED[0x0000000c])

    Base Addr    Size         Type   Attr      Idx    E Section Name        Object

    0x1fff0400   0x00000400   Data   RW         1275    global_config_area  jump_table.o


==============================================================================

Image component sizes


      Code (inc. data)   RO Data    RW Data    ZI Data      Debug   Object Name

       880         76          0         15         40      14155   adc.o
       550         66         24          8        128       8104   adc_demo.o
        20          0          0          0          0        491   adc_main.o
       420         22          0          0          0       3502   clock.o
       312         42          0         16          0      10081   flash.o
      1384        154        138          0        300      19803   gpio.o
       536        332       1024       1028          0       2094   jump_table.o
       604        204        112          1       8224      65750   main.o
      1070         22         93          8          0       6303   my_printf.o
        44          6          9          4          0       2120   osal_adc.o
       308         40          0         10          0       3449   pwm.o
       632         80          0         38        120       7997   pwrmgr.o
        28          8        192          0       1024        652   startup_armcm0.o
        16          8          0          4          0        751   system_armcm0.o
       440         82          0          4          0      11877   timer.o
      1284        140         12          0         64       9599   uart.o

    ----------------------------------------------------------------------
      9366       1558       1656       1142       9900     166728   Object Totals
       828        276         48          0          0          0   (incl. Generated)
        10          0          4          6          0          0   (incl. Padding)

    ----------------------------------------------------------------------

      Code (inc. data)   RO Data    RW Data    ZI Data      Debug   Library Member Name

        86          0          0          0          0          0   __dczerorl2.o
         0          0          0          0          0          0   entry.o
         0          0          0          0          0          0   entry10a.o
         0          0          0          0          0          0   entry11a.o
         8          4          0          0          0          0   entry2.o
         4          0          0          0          0          0   entry5.o
         0          0          0          0          0          0   entry7b.o
         0          0          0          0          0          0   entry8b.o
         8          4          0          0          0          0   entry9a.o
        30          0          0          0          0          0   handlers.o
        36          8          0          0          0         68   init.o
         0          0          0          0          0          0   iusefp.o
        32          0          0          0          0         68   llshl.o
        34          0          0          0          0         68   llushr.o
        56          0          0          0          0         68   d2f.o
       236          0          0          0          0        216   depilogue.o
       208          6          0          0          0         88   dmul.o
        40          0          0          0          0         60   f2d.o
       178          0          0          0          0        108   fadd.o
       130          0          0          0          0        144   fepilogue.o
        50          0          0          0          0         60   ffixi.o
        14          0          0          0          0         68   ffltui.o
       122          0          0          0          0         72   fmul.o
        24          0          0          0          0         60   fscalb.o
      3820        450          0         24         32       1328   patch.o
       196         26         17          5         16        216   phy_sec_ext.o
      1808        372          0          8          0        732   rf_phy_driver.o

    ----------------------------------------------------------------------
      7122        870         20         38         52       3424   Library Totals
         2          0          3          1          4          0   (incl. Padding)

    ----------------------------------------------------------------------

      Code (inc. data)   RO Data    RW Data    ZI Data      Debug   Library Name

       238         16          0          0          0        204   mc_p.l
      1058          6          0          0          0        944   mf_p.l
      5824        848         17         37         48       2276   rf.lib

    ----------------------------------------------------------------------
      7122        870         20         38         52       3424   Library Totals

    ----------------------------------------------------------------------

==============================================================================


      Code (inc. data)   RO Data    RW Data    ZI Data      Debug   

     16488       2428       1676       1180       9952     164340   Grand Totals
     16488       2428       1676        168       9952     164340   ELF Image Totals (compressed)
     16488       2428       1676        168          0          0   ROM Totals

==============================================================================

    Total RO  Size (Code + RO Data)                18164 (  17.74kB)
    Total RW  Size (RW Data + ZI Data)             11132 (  10.87kB)
    Total ROM Size (Code + RO Data + RW Data)      18332 (  17.90kB)

==============================================================================

